###############################################################################
#
# IAR ELF Linker V7.70.1.11437/W32 for ARM                28/Feb/2025  14:18:22
# Copyright 2007-2016 IAR Systems AB.
#
#    Output file  =  exe\Vostok_ACU_A_Debug.out.tmp
#    Map file     =  exe\Vostok_ACU_A_Debug.map
#    Command line =  
#        --semihosting --config config\STM32G0x_config.icf --entry
#        Micro__BootTest -f config\tmp\link_list.txt (os6m_tl__dp.a
#        obj\API003Disc.obj obj\API004Debug.obj obj\API005LowLevel.obj
#        obj\API007App.obj obj\API007BulkData.obj obj\API007Data.obj
#        obj\API007NVData.obj obj\API009System.obj obj\API010PollVar.obj
#        obj\API011AppCtrl.obj obj\API012Exp.obj obj\API013RemoteFunction.obj
#        obj\API018Diagnostic.obj obj\API019ProductInfo.obj
#        obj\API221MotionCtrl.obj obj\APIMotorControl.obj
#        obj\AbsoluteHumidityLLI.obj obj\AccelBaseline.obj
#        obj\AccelDiscover.obj obj\AccelerometerLLI.obj obj\ActivateTask.obj
#        obj\ActivePower.obj obj\AirlockMonitor.obj obj\Airlock_Model.obj
#        obj\AlternateCtrl.obj obj\AlternateLoad.obj obj\AnalogLLI.obj
#        obj\AnalogOutputPilot.obj obj\ApplianceMgr.obj obj\Atod.obj
#        obj\AutostartFactoryCycleMonitor.obj obj\BackgroundThreads.obj
#        obj\BoardDebugging.obj obj\BrownOut.obj obj\Calibration.obj
#        obj\Callback.obj obj\CartridgeDetectionMonitor.obj
#        obj\ChargePumpPilot.obj obj\ClassAFill.obj
#        obj\CommunicationMonitor.obj obj\Condition.obj obj\ConductivityLLI.obj
#        obj\Convert.obj obj\ConvertGI.obj obj\CortexM0Plus_Macro.obj
#        obj\Crc16.obj obj\Crc32.obj obj\Crc8.obj obj\CrossLoads.obj
#        obj\CycleResume.obj obj\DCFanLoad.obj obj\DCLoadCurrentMonitor.obj
#        obj\DataFlash.obj obj\Debug.obj obj\DefaultPin.obj obj\DigitalLLI.obj
#        obj\DigitalOutputMultiPilot.obj obj\DigitalOutputPilot.obj
#        obj\DirectGI.obj obj\DishAuxVar.obj obj\DiverterFaultMonitor.obj
#        obj\DiverterLeakFaultMonitor.obj obj\Dma.obj obj\DoorLockEMPilot.obj
#        obj\DoorLockWaxPilot.obj obj\DoorMonitor.obj
#        obj\DoorOpeningSystemMonitor.obj obj\DoorOpeningSystemPull.obj
#        obj\DoorOpeningSystemPush.obj obj\DoorSwitchGI.obj obj\Dtoa.obj
#        obj\EmbOSBasic.obj obj\EncoderLLI.obj obj\Equation.obj
#        obj\Estimator.obj obj\ExpansionLLI.obj obj\ExpansionPilot.obj
#        obj\ExtInterrupt.obj obj\ExternalMotorPilot.obj obj\FITMgr.obj
#        obj\FSMPilot.obj obj\FXLS8974.obj obj\FanMotorFaultMonitor.obj
#        obj\Fault.obj obj\FaultStatusMonitor.obj obj\FdmCounter.obj
#        obj\FdmTimer.obj obj\FeedbackLLI.obj obj\Fill.obj
#        obj\FillValveStuckOn.obj obj\Filter.obj obj\Flash.obj
#        obj\FlowMeterFaultMonitor.obj obj\GlitchFilter.obj obj\Gpio.obj
#        obj\HCD_Monitor.obj obj\Hbl.obj obj\HblCommon.obj obj\Heat.obj
#        obj\HeatMonitor.obj obj\HeaterCalcificationDetectionMaster.obj
#        obj\HeaterCalcificationDetectionMonitor.obj
#        obj\HeaterLeakageMonitor.obj obj\HeaterLineRelayOpenMonitor.obj
#        obj\HeaterLoad.obj obj\HeaterNeutralRelayOpenMonitor.obj
#        obj\HeaterOpenAndLineRelayClosedMonitor.obj obj\HeaterOpenMonitor.obj
#        obj\HeaterShadowing.obj obj\HotHighPotMonitor.obj
#        obj\I2CInfraredLLI.obj obj\I2CPressureSensorLLI.obj
#        obj\I2CRHTSensorLLI.obj obj\I2c.obj obj\I2cMgr.obj obj\IAPEmul.obj
#        obj\IIRFilter.obj obj\InputCaptureLLI.obj obj\IntMgr.obj
#        obj\Interpreter.obj obj\InterruptVector.obj obj\JumpIf.obj
#        obj\LISxDH.obj obj\LITTFaultMonitor.obj obj\LITTMonitor.obj
#        obj\LoadsControl.obj obj\Log.obj obj\LowPower.obj obj\MCUDebug.obj
#        obj\MagnetronPilot.obj obj\MagnetronPilotMainsSampler.obj
#        obj\MagnetronPilotRelaySync.obj obj\Maintain.obj
#        obj\MasterCommander.obj obj\MathCalc.obj obj\Mci.obj
#        obj\MciZeroCross.obj obj\Mcl.obj obj\MclFireAngleCtrl.obj
#        obj\MclInputProc.obj obj\MclObserver.obj obj\MclTriacDrive.obj
#        obj\MclZeroCross.obj obj\McuGetDataMonitor.obj obj\Micro.obj
#        obj\MicroExt.obj obj\Millis.obj obj\Mode.obj obj\Modifier.obj
#        obj\MoisturePrevention.obj obj\MoisturePreventionMonitor.obj
#        obj\MotorPilot.obj obj\MultiDriverPilot.obj obj\MultiInputLLI.obj
#        obj\MultiSequencePilot.obj obj\NVData.obj obj\NonfunctionalLLI.obj
#        obj\NonfunctionalPilot.obj obj\NormalFill.obj obj\OS_Error.obj
#        obj\OWI.obj obj\OWICalibrationModel.obj obj\OWICalibrationProcess.obj
#        obj\OWIContinousReading.obj obj\OWIMonitor.obj obj\OWIOneShot.obj
#        obj\OWIVoltageRegulatedOutput.obj
#        obj\OWIVoltageRegulatedOutputModel.obj obj\OWI_VRO_Monitor.obj
#        obj\OsServices.obj obj\OverfillMonitor.obj
#        obj\OwiVroContinuousReading.obj obj\OwiVroRead.obj
#        obj\PORTimeMonitor.obj obj\PartialDrainModel.obj
#        obj\PartialDrainProcess.obj obj\PeakDetector.obj obj\Pi.obj
#        obj\PilotRelayFaultMonitor.obj obj\PilotRelayStuckClosedMonitor.obj
#        obj\PilotRelayStuckOpenMonitor.obj obj\PluggingMonitor.obj
#        obj\Plugging_Model.obj obj\ProbeInput.obj obj\ProbeLpsGI.obj
#        obj\ProductInfo.obj obj\PulseCounterLLI.obj obj\PumpCommand.obj
#        obj\PumpControl.obj obj\PumpFlushRequestMonitor.obj
#        obj\PwmHiResPilot.obj obj\PwmPilot.obj obj\Regenerate.obj
#        obj\RegulationAccept.obj obj\Regulations.obj obj\Reveal.obj
#        obj\RinseAid.obj obj\RinseAidDispense.obj obj\RinseAidMonitor.obj
#        obj\Rtc.obj obj\RtcDriver.obj obj\SEGGER_RTT.obj
#        obj\SEGGER_RTT_printf.obj obj\SFUpdater.obj obj\SFVersionCheck.obj
#        obj\SRAPI020Safety.obj obj\SRAnalogLLI.obj obj\SRChargePumpPilot.obj
#        obj\SRClockMonitor.obj obj\SRData.obj obj\SRDigitalLLI.obj
#        obj\SRDigitalOutputMultiPilot.obj obj\SRDigitalOutputPilot.obj
#        obj\SRDoorLockEMPilot.obj obj\SRDoorLockWaxPilot.obj
#        obj\SRException.obj obj\SRFeedbackLLI.obj
#        obj\SRI2CPressureSensorLLI.obj obj\SRICTachometerLLI.obj
#        obj\SRInputCaptureLLI.obj obj\SRIsrMonitor.obj obj\SRMain.obj
#        obj\SRPowerMgr.obj obj\SRProductMgr.obj obj\SRSignature.obj
#        obj\SRTaskMonitor.obj obj\SRTaskSequence.obj obj\SRTimerReference.obj
#        obj\SRTouchKeyLLI.obj obj\SRTriacFeedbackLLI.obj
#        obj\SRUMRelayPilot.obj obj\SRUnusedPinsConfig.obj
#        obj\SW05SoftwareTest.obj obj\SaltSensingMonitor.obj
#        obj\Sanitization.obj obj\SeggerRTT.obj obj\Selector.obj
#        obj\SelfTestFXLS8974.obj obj\SensedDrainModel.obj
#        obj\SensedDrainProcess.obj obj\SetLoadQueue.obj obj\SetVariable.obj
#        obj\SettingFile.obj obj\Spi.obj obj\StabilityControl.obj
#        obj\StabilityControlLoopMonitor.obj obj\StackAnalysis.obj
#        obj\StandbyManager.obj obj\Statistics.obj obj\StatisticsDish.obj
#        obj\Status.obj obj\StatusLed.obj obj\SteadyPwmProfilePilot.obj
#        obj\StepperPilot.obj obj\SubCycle.obj obj\Supervisor.obj
#        obj\SupervisorExtMonitor.obj obj\SystemTimers.obj obj\TankDrain.obj
#        obj\TankFill.obj obj\TestMgr.obj obj\ThermistorFaultMonitor.obj
#        obj\ThermistorOpenMonitor.obj obj\ThermistorShortedMonitor.obj
#        obj\TimeCapture.obj obj\TimeElapse.obj obj\Timeout.obj obj\Timer.obj
#        obj\TimerInterrupt.obj obj\TimerInterruptExt.obj
#        obj\TimingAnalysis.obj obj\TouchKeyLLI.obj obj\TouchSliderLLI.obj
#        obj\TouchWheelLLI.obj obj\TriacCurrentMonitor.obj
#        obj\TriacFeedbackLLI.obj obj\TriacMci.obj
#        obj\TriacShortedDrainFaultMonitor.obj obj\TriacSwitchPilot.obj
#        obj\TriacVoltageMonitor.obj obj\TridgeDetergent.obj obj\Uart.obj
#        obj\Utilities.obj obj\VSDrainMotorFaultMonitor.obj obj\Variable.obj
#        obj\VirtualDigitalLLI.obj obj\VirtualPin.obj
#        obj\VoltageRangeMonitor.obj obj\Vwi.obj obj\VwiMonitor.obj
#        obj\VwiZoneCompensationMonitor.obj obj\WashHeaterFaultMonitor.obj
#        obj\WashMotorFaultMonitor.obj obj\WaterCounterGI.obj obj\Win.obj
#        obj\ZCRelayPilot.obj obj\ZCTriacPilot.obj obj\ZeroCross.obj
#        obj\ZeroCrossMonitor.obj obj\mc_bdm.obj obj\mc_llmem.obj
#        obj\mc_protocol.obj obj\mc_rec.obj obj\mc_scope.obj obj\mc_serial.obj)
#        obj\MicroExtInterruptJumpTable.obj -L
#        ..\Nucleus-Tools-SDK\embOS\arm\v4.26\ARM_IAR_v6 --map
#        exe\Vostok_ACU_A_Debug.map -o exe\Vostok_ACU_A_Debug.out.tmp
#        --image_input config\tmp\settingfile.bin,__Debug_SF,.settingfile*,4
#        --keep __Debug_SF --place_holder MICRO_FLASH_CRC,4,.MICRO_CRC_region,4
#
###############################################################################

*******************************************************************************
*** RUNTIME MODEL ATTRIBUTES
***

CppFlavor       = *
__Heap_Handler  = Basic
__SystemLibrary = DLib


*******************************************************************************
*** PLACEMENT SUMMARY
***

"P1":  place in [from 0x20000000 to 0x20000038] { section .RESET_INFO_HEADER };
"P2":  place in [from 0x20023fd3 to 0x20023fff] { section .RESET_INFO_FOOTER };
"A0":  place at start of [0x08039000-0x0803e7ff] { ro section .settingfile* };
"A1":  place at start of [0x20000038-0x20023fd3] {
          block NVDATA_SECTION_HEADER, block NVDATA_SECTION_APPLIANCE,
          block NVDATA_SECTION_STATISTICS, block NVDATA_SECTION_STATIC_CFG };
"A2":  place at end of [0x08003000-0x08038fff] { ro section .MICRO_CRC_region };
"A3":  place at 0x08000000 { ro section Non_Maskable_Jump_interrupt_table };
"A4":  place at 0x080030c0 { ro section FIT_APPL_TABLE_REGION };
"A5":  place at 0x08003000 { ro section .intvec };
"P4":  place in [from 0x08003000 to 0x08038fff] { ro };
"P5":  place in [from 0x20000038 to 0x20023fd3] { rw };
"A6":  place at end of [0x20000038-0x20023fd3] { block HEAP, block STACKS };
initialize by copy { rw };

  Section                 Kind        Address     Size  Object
  -------                 ----        -------     ----  ------
"A3":                                              0x8
  Non_Maskable_Jump_interrupt_table
                          const    0x08000000      0x8  MicroExtInterruptJumpTable.obj [2]
                                 - 0x08000008      0x8

"A5":                                             0xbc
  .intvec                          0x08003000     0xbc  <Block>
    .intvec               const    0x08003000     0xbc  InterruptVector.obj [2]
                                 - 0x080030bc     0xbc

"P4", part 1 of 2:                                 0x0
  .rodata                 const    0x080030bc      0x0  zero_init3.o [7]
  .rodata                 const    0x080030bc      0x0  packbits_init_single.o [7]

"A4":                                             0x24
  FIT_APPL_TABLE_REGION   const    0x080030c0     0x24  FITMgr.obj [2]
                                 - 0x080030e4     0x24

"P4", part 2 of 2:                             0x307bc
  .text                   ro code  0x080030e4   0x1c26  Supervisor.obj [2]
  .text                   ro code  0x08004d0c    0xa2c  Fault.obj [2]
  .text                   ro code  0x08005738    0xf60  Interpreter.obj [2]
  .text                   ro code  0x08006698    0xc58  Micro.obj [2]
  .text                   ro code  0x080072f0    0x7a0  NVData.obj [2]
  .text                   ro code  0x08007a90     0x64  ABImemset.o [7]
  .text                   ro code  0x08007af4    0x3f2  Selector.obj [2]
  .text                   ro code  0x08007ee8    0x110  Log.obj [2]
  .text                   ro code  0x08007ff8    0x6c0  Statistics.obj [2]
  .text                   ro code  0x080086b8    0xa80  Variable.obj [2]
  .text                   ro code  0x08009138    0x2ac  API012Exp.obj [2]
  .text                   ro code  0x080093e4    0x2bc  Mode.obj [2]
  .text                   ro code  0x080096a0    0x404  ActivateTask.obj [2]
  .text                   ro code  0x08009aa4    0x8b8  Estimator.obj [2]
  .text                   ro code  0x0800a35c    0x61c  CartridgeDetectionMonitor.obj [2]
  .text                   ro code  0x0800a978    0x15c  DoorMonitor.obj [2]
  .text                   ro code  0x0800aad4    0x4bc  Regulations.obj [2]
  .text                   ro code  0x0800af90     0x5c  ABImemcpy.o [7]
  .text                   ro code  0x0800afec    0x1ac  OWIMonitor.obj [2]
  .text                   ro code  0x0800b198     0xd2  MoisturePrevention.obj [2]
  .text                   ro code  0x0800b26c    0x4e4  Fill.obj [2]
  .text                   ro code  0x0800b750    0x840  NormalFill.obj [2]
  .text                   ro code  0x0800bf90    0x1e8  AutostartFactoryCycleMonitor.obj [2]
  .text                   ro code  0x0800c178     0xc8  DiverterLeakFaultMonitor.obj [2]
  .text                   ro code  0x0800c240    0x6bc  HeaterCalcificationDetectionMonitor.obj [2]
  .text                   ro code  0x0800c8fc    0x71c  OwiVroRead.obj [2]
  .text                   ro code  0x0800d018    0x724  StabilityControl.obj [2]
  .text                   ro code  0x0800d73c     0x9c  Sanitization.obj [2]
  .text                   ro code  0x0800d7d8    0x290  RinseAidMonitor.obj [2]
  .text                   ro code  0x0800da68    0x7ac  StatisticsDish.obj [2]
  .text                   ro code  0x0800e214     0x68  TimeElapse.obj [2]
  .text                   ro code  0x0800e27c    0x338  Maintain.obj [2]
  .text                   ro code  0x0800e5b4    0x220  OWIOneShot.obj [2]
  .text                   ro code  0x0800e7d4    0x4d8  ClassAFill.obj [2]
  .text                   ro code  0x0800ecac    0x438  TankFill.obj [2]
  .text                   ro code  0x0800f0e4    0x444  FillValveStuckOn.obj [2]
  .text                   ro code  0x0800f528    0xe64  TriacCurrentMonitor.obj [2]
  .text                   ro code  0x0801038c    0x5d8  DCLoadCurrentMonitor.obj [2]
  .text                   ro code  0x08010964     0xc8  CycleResume.obj [2]
  .text                   ro code  0x08010a2c    0x60c  HeaterShadowing.obj [2]
  .text                   ro code  0x08011038    0x1f0  DoorOpeningSystemMonitor.obj [2]
  .text                   ro code  0x08011228    0x364  MoisturePreventionMonitor.obj [2]
  .text                   ro code  0x0801158c     0xac  ThermistorFaultMonitor.obj [2]
  .text                   ro code  0x08011638    0x448  Heat.obj [2]
  .text                   ro code  0x08011a80    0x1b8  WashHeaterFaultMonitor.obj [2]
  .text                   ro code  0x08011c38     0xd0  PilotRelayFaultMonitor.obj [2]
  .text                   ro code  0x08011d08    0x8c8  SensedDrainProcess.obj [2]
  .text                   ro code  0x080125d0     0xd4  OWIVoltageRegulatedOutput.obj [2]
  .text                   ro code  0x080126a4    0x4d4  DishAuxVar.obj [2]
  .text                   ro code  0x08012b78    0x134  Callback.obj [2]
  .text                   ro code  0x08012cac    0x43e  SettingFile.obj [2]
  .text                   ro code  0x080130ec    0x100  FdmTimer.obj [2]
  .text                   ro code  0x080131ec    0x564  API018Diagnostic.obj [2]
  .text                   ro code  0x08013750    0x12e  SubCycle.obj [2]
  .text                   ro code  0x08013880     0x16  uread4.o [7]
  .text                   ro code  0x08013898    0x600  PumpControl.obj [2]
  .text                   ro code  0x08013e98    0x218  JumpIf.obj [2]
  .text                   ro code  0x080140b0    0x2d4  TankDrain.obj [2]
  .text                   ro code  0x08014384    0x512  SRData.obj [2]
  .text                   ro code  0x08014898    0x17c  CortexM0Plus_Macro.obj [2]
  .text                   ro code  0x08014a14     0x28  data_init.o [7]
  .text                   ro code  0x08014a3c      0xc  cstartup_M.o [7]
  .text                   ro code  0x08014a48    0x9b0  SRMain.obj [2]
  .text                   ro code  0x080153f8    0x260  SRTaskSequence.obj [2]
  .text                   ro code  0x08015658     0xa0  SRException.obj [2]
  .text                   ro code  0x080156f8    0x270  Crc16.obj [2]
  .text                   ro code  0x08015968     0xe0  I32DivModFast.o [7]
  .text                   ro code  0x08015a48    0x12c  Crc8.obj [2]
  .text                   ro code  0x08015b74     0x4c  DataFlash.obj [2]
  .text                   ro code  0x08015bc0    0x580  SRTaskMonitor.obj [2]
  .text                   ro code  0x08016140     0x14  uwrite4.o [7]
  .text                   ro code  0x08016154    0xfa4  Reveal.obj [2]
  .text                   ro code  0x080170f8     0x26  ABImemmove.o [7]
  .text                   ro code  0x08017120    0x168  Millis.obj [2]
  .text                   ro code  0x08017288    0x624  API011AppCtrl.obj [2]
  .text                   ro code  0x080178ac     0x78  Utilities.obj [2]
  .text                   ro code  0x08017924     0x28  memcmp.o [7]
  .text                   ro code  0x0801794c     0x34  I32ToDbl.o [5]
  .text                   ro code  0x08017980    0x550  Modifier.obj [2]
  .text                   ro code  0x08017ed0     0x52  DblToI32.o [5]
  .text                   ro code  0x08017f24   0x1b10  Hbl.obj [2]
  .text                   ro code  0x08019a34    0x1fc  API013RemoteFunction.obj [2]
  .text                   ro code  0x08019c30    0x1d0  ApplianceMgr.obj [2]
  .text                   ro code  0x08019e00    0x1a0  BrownOut.obj [2]
  .text                   ro code  0x08019fa0    0x1ac  OWICalibrationProcess.obj [2]
  .text                   ro code  0x0801a14c    0x470  Regenerate.obj [2]
  .text                   ro code  0x0801a5bc    0x44e  Vwi.obj [2]
  .text                   ro code  0x0801aa0c    0x55c  SystemTimers.obj [2]
  .text                   ro code  0x0801af68    0x1ac  HotHighPotMonitor.obj [2]
  .text                   ro code  0x0801b114    0x100  HeaterCalcificationDetectionMaster.obj [2]
  .text                   ro code  0x0801b214     0x36  I32ToFlt.o [5]
  .text                   ro code  0x0801b24a     0xb0  FltMul.o [5]
  .text                   ro code  0x0801b2fa     0xaa  FltDiv.o [5]
  .text                   ro code  0x0801b3a4    0x120  FltAddSub.o [5]
  .text                   ro code  0x0801b4c4     0x26  FltCmpLe.o [5]
  .text                   ro code  0x0801b4ec     0x3c  lroundf.o [5]
  .text                   ro code  0x0801b528     0xdc  AirlockMonitor.obj [2]
  .text                   ro code  0x0801b604    0x140  PluggingMonitor.obj [2]
  .text                   ro code  0x0801b744    0x280  StabilityControlLoopMonitor.obj [2]
  .text                   ro code  0x0801b9c4    0x230  Condition.obj [2]
  .text                   ro code  0x0801bbf4    0x46c  TriacVoltageMonitor.obj [2]
  .text                   ro code  0x0801c060    0x16c  DoorOpeningSystemPush.obj [2]
  .text                   ro code  0x0801c1cc    0x130  ThermistorOpenMonitor.obj [2]
  .text                   ro code  0x0801c2fc    0x140  ThermistorShortedMonitor.obj [2]
  .text                   ro code  0x0801c43c    0x1d0  HeaterNeutralRelayOpenMonitor.obj [2]
  .text                   ro code  0x0801c60c    0x168  HeaterLineRelayOpenMonitor.obj [2]
  .text                   ro code  0x0801c774    0x17c  HeaterLeakageMonitor.obj [2]
  .text                   ro code  0x0801c8f0    0x188  HeaterOpenMonitor.obj [2]
  .text                   ro code  0x0801ca78    0x19c  HeaterOpenAndLineRelayClosedMonitor.obj [2]
  .text                   ro code  0x0801cc14    0x160  PilotRelayStuckClosedMonitor.obj [2]
  .text                   ro code  0x0801cd74    0x160  PilotRelayStuckOpenMonitor.obj [2]
  .text                   ro code  0x0801ced4    0x844  SensedDrainModel.obj [2]
  .text                   ro code  0x0801d718    0x100  Filter.obj [2]
  .text                   ro code  0x0801d818     0x3a  FltToS32.o [5]
  .text                   ro code  0x0801d854    0x2c2  PartialDrainProcess.obj [2]
  .text                   ro code  0x0801db18     0xc0  PumpCommand.obj [2]
  .text                   ro code  0x0801dbd8    0x304  OWIVoltageRegulatedOutputModel.obj [2]
  .text                   ro code  0x0801dedc    0x6f4  OS_Kern.o [6]
  .text                   ro code  0x0801e5d0     0x20  PumpFlushRequestMonitor.obj [2]
  .text                   ro code  0x0801e5f0     0x1a  cmain.o [7]
  .text                   ro code  0x0801e60c    0x2a8  SRIsrMonitor.obj [2]
  .text                   ro code  0x0801e8b4     0x40  SRTimerReference.obj [2]
  .text                   ro code  0x0801e8f4    0x1a0  SRClockMonitor.obj [2]
  .text                   ro code  0x0801ea94    0x184  Gpio.obj [2]
  .text                   ro code  0x0801ec18    0x3e4  SW05SoftwareTest.obj [2]
  .text                   ro code  0x0801effc    0x130  TimingAnalysis.obj [2]
  .text                   ro code  0x0801f12c    0x130  EmbOSBasic.obj [2]
  .text                   ro code  0x0801f25c     0x2c  OS_Error.obj [2]
  .text                   ro code  0x0801f288     0xa0  TimerInterrupt.obj [2]
  .text                   ro code  0x0801f328    0x14c  OS_CreateTask.o [6]
  .text                   ro code  0x0801f474      0xc  OS_Info.o [6]
  .text                   ro code  0x0801f480    0x124  rtos.o [6]
  .text                   ro code  0x0801f5a4    0x58c  Win.obj [2]
  .text                   ro code  0x0801fb30    0xdc8  Timer.obj [2]
  .text                   ro code  0x080208f8      0x2  IntDivZer.o [7]
  Veneer                  ro code  0x080208fc     0x10  - Linker created -
  .text                   ro code  0x0802090c    0x284  Flash.obj [2]
  .text                   ro code  0x08020b90    0x218  SRPowerMgr.obj [2]
  .text                   ro code  0x08020da8    0x100  SFUpdater.obj [2]
  .text                   ro code  0x08020ea8    0x278  Status.obj [2]
  .text                   ro code  0x08021120     0x4c  lround.o [5]
  .text                   ro code  0x0802116c     0x24  DblCmpEq.o [5]
  .text                   ro code  0x08021190     0x32  DblCmpLe.o [5]
  .text                   ro code  0x080211c2    0x1b4  DblAddSub.o [5]
  .text                   ro code  0x08021378    0x506  Convert.obj [2]
  .text                   ro code  0x0802187e    0x184  DblMul.o [5]
  .text                   ro code  0x08021a02     0xc2  DblDiv.o [5]
  .text                   ro code  0x08021ac4     0x32  FltToDbl.o [5]
  .text                   ro code  0x08021af8     0xec  ExtInterrupt.obj [2]
  .text                   ro code  0x08021be4    0x5f4  ZeroCross.obj [2]
  .text                   ro code  0x080221d8    0xbc0  CrossLoads.obj [2]
  .text                   ro code  0x08022d98    0x134  SRProductMgr.obj [2]
  .text                   ro code  0x08022ecc    0x190  SetLoadQueue.obj [2]
  .text                   ro code  0x0802305c     0x70  HblCommon.obj [2]
  .text                   ro code  0x080230cc     0xfc  PORTimeMonitor.obj [2]
  .text                   ro code  0x080231c8    0x1e4  LITTMonitor.obj [2]
  .text                   ro code  0x080233ac     0xfc  SupervisorExtMonitor.obj [2]
  .text                   ro code  0x080234a8     0x94  OverfillMonitor.obj [2]
  .text                   ro code  0x0802353c     0xac  ZeroCrossMonitor.obj [2]
  .text                   ro code  0x080235e8    0x104  FlowMeterFaultMonitor.obj [2]
  .text                   ro code  0x080236ec    0x110  FaultStatusMonitor.obj [2]
  .text                   ro code  0x080237fc    0x18e  DiverterFaultMonitor.obj [2]
  .text                   ro code  0x0802398c    0x290  WashMotorFaultMonitor.obj [2]
  .text                   ro code  0x08023c1c    0x13e  CommunicationMonitor.obj [2]
  .text                   ro code  0x08023d5c    0x1e8  SaltSensingMonitor.obj [2]
  .text                   ro code  0x08023f44    0x268  HeatMonitor.obj [2]
  .text                   ro code  0x080241ac    0x2b4  TriacShortedDrainFaultMonitor.obj [2]
  .text                   ro code  0x08024460    0x2b8  VoltageRangeMonitor.obj [2]
  .text                   ro code  0x08024718     0x50  RegulationAccept.obj [2]
  .text                   ro code  0x08024768    0x2ec  StatusLed.obj [2]
  .text                   ro code  0x08024a54    0x3d4  OWICalibrationModel.obj [2]
  .text                   ro code  0x08024e28    0x1f0  Mci.obj [2]
  .text                   ro code  0x08025018     0x36  IIRFilter.obj [2]
  .text                   ro code  0x0802504e      0x8  abs.o [4]
  .text                   ro code  0x08025058    0x4c0  HCD_Monitor.obj [2]
  .text                   ro code  0x08025518     0x3c  roundf.o [5]
  .text                   ro code  0x08025554     0x28  FltCmpGe.o [5]
  .text                   ro code  0x0802557c     0x10  errno.o [4]
  .text                   ro code  0x0802558c    0x27c  Airlock_Model.obj [2]
  .text                   ro code  0x08025808    0x2de  Plugging_Model.obj [2]
  .text                   ro code  0x08025ae8    0x2b8  PartialDrainModel.obj [2]
  .text                   ro code  0x08025da0    0x4b0  OWI_VRO_Monitor.obj [2]
  .text                   ro code  0x08026250     0x18  OS_StackInfo.o [6]
  .text                   ro code  0x08026268     0x16  OS_GetCPUState.o [6]
  .text                   ro code  0x08026280     0x1c  OS_InitMode.o [6]
  .text                   ro code  0x0802629c      0x4  low_level_init.o [4]
  .text                   ro code  0x080262a0      0x8  exit.o [4]
  .text                   ro code  0x080262a8     0x28  InterruptVector.obj [2]
  .text                   ro code  0x080262d0     0x6c  StackAnalysis.obj [2]
  .text                   ro code  0x0802633c     0xa8  API004Debug.obj [2]
  .text                   ro code  0x080263e4     0xa0  OS_Stat.o [6]
  .text                   ro code  0x08026484     0x9c  OS_Timing.o [6]
  .text                   ro code  0x08026520     0x74  OS_TICK_Handle.o [6]
  .text                   ro code  0x08026594     0x32  I64Mul.o [7]
  .text                   ro code  0x080265c6     0xa8  I64DivMod.o [7]
  .text                   ro code  0x08026670    0xa60  Uart.obj [2]
  .text                   ro code  0x080270d0    0x1e4  LowPower.obj [2]
  .text                   ro code  0x080272b4    0x246  API009System.obj [2]
  .text                   ro code  0x080274fc    0x800  API007Data.obj [2]
  .text                   ro code  0x08027cfc     0x48  round.o [5]
  .text                   ro code  0x08027d44     0x32  DblCmpGe.o [5]
  .text                   ro code  0x08027d78    0xa4c  AlternateLoad.obj [2]
  .text                   ro code  0x080287c4    0xca0  AlternateCtrl.obj [2]
  .text                   ro code  0x08029464    0x248  HeaterLoad.obj [2]
  .text                   ro code  0x080296ac      0x8  RegulationAccept.obj [2]
  .text                   ro code  0x080296b4      0x4  VirtualPin.obj [2]
  .text                   ro code  0x080296b8     0x58  floor.o [5]
  .text                   ro code  0x08029710     0x58  ceil.o [5]
  .text                   ro code  0x08029768     0x1a  BoardDebugging.obj [2]
  .text                   ro code  0x08029782      0x6  MCUDebug.obj [2]
  .text                   ro code  0x08029788    0x5c4  Mcl.obj [2]
  .text                   ro code  0x08029d4c    0x22c  APIMotorControl.obj [2]
  .text                   ro code  0x08029f78    0x15c  ActivePower.obj [2]
  .text                   ro code  0x0802a0d4     0x4c  MciZeroCross.obj [2]
  .text                   ro code  0x0802a120     0x56  xfdint.o [5]
  .text                   ro code  0x0802a178     0x1c  xtls.o [6]
  .text                   ro code  0x0802a194    0x2de  powf.o [5]
  .text                   ro code  0x0802a474      0xa  cexit.o [7]
  .text                   ro code  0x0802a47e     0x58  OS_SysStackInfo.o [6]
  .text                   ro code  0x0802a4d8     0x8c  OS_TaskStackInfo.o [6]
  .text                   ro code  0x0802a564      0x2  I64DivZer.o [7]
  .text                   ro code  0x0802a568     0x7c  StandbyManager.obj [2]
  .text                   ro code  0x0802a5e4      0x2  McuGetDataMonitor.obj [2]
  .text                   ro code  0x0802a5e8    0x37e  API007BulkData.obj [2]
  .text                   ro code  0x0802a968     0x84  xdint.o [5]
  .text                   ro code  0x0802a9ec     0x18  memchr.o [7]
  .text                   ro code  0x0802aa04     0x24  MasterCommander.obj [2]
  .text                   ro code  0x0802aa28      0x2  MathCalc.obj [2]
  .text                   ro code  0x0802aa2c    0x218  MclInputProc.obj [2]
  .text                   ro code  0x0802ac44    0x494  MclObserver.obj [2]
  .text                   ro code  0x0802b0d8    0x370  MclTriacDrive.obj [2]
  .text                   ro code  0x0802b448     0x64  MclZeroCross.obj [2]
  .text                   ro code  0x0802b4ac    0xa1c  MclFireAngleCtrl.obj [2]
  .text                   ro code  0x0802bec8      0x2  TimerInterruptExt.obj [2]
  .text                   ro code  0x0802becc     0xe0  TimeCapture.obj [2]
  .text                   ro code  0x0802bfac     0xd4  PeakDetector.obj [2]
  .text                   ro code  0x0802c080    0x2a0  Atod.obj [2]
  .text                   ro code  0x0802c320     0x20  FltCmpEq.o [5]
  .text                   ro code  0x0802c340     0x2c  xflog.o [5]
  .text                   ro code  0x0802c36c    0x214  xfexp.o [5]
  .text                   ro code  0x0802c580     0x14  exit.o [8]
  .text                   ro code  0x0802c594    0x1f0  API007App.obj [2]
  .text                   ro code  0x0802c784    0x232  mc_protocol.obj [2]
  .text                   ro code  0x0802c9b8    0x37c  mc_rec.obj [2]
  .text                   ro code  0x0802cd34    0x1bc  mc_serial.obj [2]
  .text                   ro code  0x0802cef0     0x50  GlitchFilter.obj [2]
  .text                   ro code  0x0802cf40     0xa4  Pi.obj [2]
  .text                   ro code  0x0802cfe4     0x6c  xfdscale.o [5]
  .text                   ro code  0x0802d050     0xac  mc_scope.obj [2]
  .text                   ro code  0x0802d0fc     0x94  mc_llmem.obj [2]
  .text                   ro code  0x0802d190    0x8e0  API010PollVar.obj [2]
  .text                   ro code  0x0802da70    0x8e0  LoadsControl.obj [2]
  .text                   ro code  0x0802e350    0x758  API019ProductInfo.obj [2]
  .text                   ro code  0x0802eaa8     0xc4  ProductInfo.obj [2]
  .text                   ro code  0x0802eb6c     0x28  SRSignature.obj [2]
  .text                   ro code  0x0802eb94    0x6b4  API005LowLevel.obj [2]
  .text                   ro code  0x0802f248    0x340  TestMgr.obj [2]
  .text                   ro code  0x0802f588    0x5e4  PwmHiResPilot.obj [2]
  .rodata                 const    0x0802fb6c    0x578  Hbl.obj [2]
  .text                   ro code  0x080300e4    0x518  PwmPilot.obj [2]
  .text                   ro code  0x080305fc    0x4bc  AnalogLLI.obj [2]
  .text                   ro code  0x08030ab8    0x488  TridgeDetergent.obj [2]
  .text                   ro code  0x08030f40    0x478  FeedbackLLI.obj [2]
  .text                   ro code  0x080313b8    0x2f4  PulseCounterLLI.obj [2]
  .text                   ro code  0x080316ac    0x2c8  SteadyPwmProfilePilot.obj [2]
  .text                   ro code  0x08031974    0x288  RinseAid.obj [2]
  .text                   ro code  0x08031bfc    0x23c  ZCRelayPilot.obj [2]
  .text                   ro code  0x08031e38    0x21c  IntMgr.obj [2]
  .rodata                 const    0x08032054    0x200  VirtualPin.obj [2]
  .text                   ro code  0x08032254    0x1ee  RtcDriver.obj [2]
  .text                   ro code  0x08032444    0x1d0  DigitalOutputMultiPilot.obj [2]
  .text                   ro code  0x08032614    0x194  API003Disc.obj [2]
  .text                   ro code  0x080327a8    0x18c  WaterCounterGI.obj [2]
  .text                   ro code  0x08032934    0x17e  DigitalOutputPilot.obj [2]
  .text                   ro code  0x08032ab4    0x168  SetVariable.obj [2]
  .text                   ro code  0x08032c1c    0x160  DigitalLLI.obj [2]
  .text                   ro code  0x08032d7c    0x156  TriacMci.obj [2]
  .text                   ro code  0x08032ed4    0x138  ChargePumpPilot.obj [2]
  .text                   ro code  0x0803300c    0x112  ProbeInput.obj [2]
  .text                   ro code  0x08033120     0xca  DefaultPin.obj [2]
  .text                   ro code  0x080331ec     0xae  ConvertGI.obj [2]
  .text                   ro code  0x0803329a     0x86  RinseAidDispense.obj [2]
  .text                   ro code  0x08033320     0x6c  ExpansionLLI.obj [2]
  .text                   ro code  0x0803338c     0x6a  OWI.obj [2]
  .text                   ro code  0x080333f6     0x4e  DoorOpeningSystemPull.obj [2]
  .text                   ro code  0x08033444     0x46  OWIContinousReading.obj [2]
  .rodata                 const    0x0803348c     0x40  Interpreter.obj [2]
  .text                   ro code  0x080334cc     0x3c  zero_init3.o [7]
  .text                   ro code  0x08033508     0x3c  packbits_init_single.o [7]
  .rodata                 const    0x08033544     0x38  SRTaskSequence.obj [2]
  .text                   ro code  0x0803357c     0x34  FdmCounter.obj [2]
  .text                   ro code  0x080335b0     0x22  OwiVroContinuousReading.obj [2]
  .iar.init_table         const    0x080335d4     0xb0  - Linker created -
  .rodata                 const    0x08033684     0x10  Convert.obj [2]
  .text                   ro code  0x08033694     0x10  Debug.obj [2]
  .text                   ro code  0x080336a4     0x10  MicroExtInterruptJumpTable.obj [2]
  .rodata                 const    0x080336b4      0xc  Variable.obj [2]
  .rodata                 const    0x080336c0      0x4  EmbOSBasic.obj [2]
  .rodata                 const    0x080336c4      0x4  OS_Global.o [6]
  Initializer bytes       const    0x080336c8      0x2  <for __DLIB_PERTHREAD-1>
  Initializer bytes       const    0x080336ca    0x1d6  <for P5-1>
                                 - 0x080338a0  0x307bc

"A2":                                              0x4
  .MICRO_CRC_region       const    0x08038ffc      0x4  Place holder MICRO_FLASH_CRC
                                 - 0x08039000      0x4

"A0":                                              0x2
  .settingfile*           const    0x08039000      0x2  settingfile.bin [1]
                                 - 0x08039002      0x2

"P1":                                             0x34
  .RESET_INFO_HEADER      uninit   0x20000000     0x34  Micro.obj [2]
                                 - 0x20000034     0x34

"A1":                                            0x828
  NVDATA_SECTION_HEADER            0x20000038      0xc  <Block>
    _header_segment       zero     0x20000038      0xc  NVData.obj [2]
  NVDATA_SECTION_APPLIANCE
                                   0x20000044    0x3ec  <Block>
    _appliance_segment    zero     0x20000044     0x34  API007App.obj [2]
    _appliance_segment    zero     0x20000078     0x14  API007App.obj [2]
    _appliance_segment    zero     0x2000008c     0x24  AlternateCtrl.obj [2]
    _appliance_segment    zero     0x200000b0     0x24  CartridgeDetectionMonitor.obj [2]
    _appliance_segment    zero     0x200000d4     0x10  CartridgeDetectionMonitor.obj [2]
    _appliance_segment    zero     0x200000e4      0x9  ClassAFill.obj [2]
    _appliance_segment    zero     0x200000ed      0x2  AutostartFactoryCycleMonitor.obj [2]
    _appliance_segment    zero     0x200000ef      0x1  AlternateCtrl.obj [2]
    _appliance_segment    zero     0x200000f0     0x24  DishAuxVar.obj [2]
    _appliance_segment    zero     0x20000114      0x4  DishAuxVar.obj [2]
    _appliance_segment    zero     0x20000118      0x4  DoorOpeningSystemMonitor.obj [2]
    _appliance_segment    zero     0x2000011c     0x1e  Estimator.obj [2]
    _appliance_segment    zero     0x2000013a      0x2  ActivateTask.obj [2]
    _appliance_segment    zero     0x2000013c     0x34  Fault.obj [2]
    _appliance_segment    zero     0x20000170     0x30  Fill.obj [2]
    _appliance_segment    zero     0x200001a0      0xc  Heat.obj [2]
    _appliance_segment    zero     0x200001ac     0x29  HeaterCalcificationDetectionMonitor.obj [2]
    _appliance_segment    zero     0x200001d6      0x2  DishAuxVar.obj [2]
    _appliance_segment    zero     0x200001d8      0xc  Interpreter.obj [2]
    _appliance_segment    zero     0x200001e4      0x9  Interpreter.obj [2]
    _appliance_segment    zero     0x200001ee      0x6  PumpControl.obj [2]
    _appliance_segment    zero     0x200001f4     0x14  Interpreter.obj [2]
    _appliance_segment    zero     0x20000208     0x14  Interpreter.obj [2]
    _appliance_segment    zero     0x2000021c     0x24  LoadsControl.obj [2]
    _appliance_segment    zero     0x20000240     0x10  Maintain.obj [2]
    _appliance_segment    zero     0x20000250      0x4  Millis.obj [2]
    _appliance_segment    zero     0x20000254     0x16  MoisturePreventionMonitor.obj [2]
    _appliance_segment    zero     0x2000026a      0x2  Sanitization.obj [2]
    _appliance_segment    zero     0x2000026c      0x4  NVData.obj [2]
    _appliance_segment    zero     0x20000270     0x10  NormalFill.obj [2]
    _appliance_segment    zero     0x20000280      0x4  OWICalibrationProcess.obj [2]
    _appliance_segment    zero     0x20000284     0x40  OwiVroRead.obj [2]
    _appliance_segment    zero     0x200002c4      0xc  OwiVroRead.obj [2]
    _appliance_segment    zero     0x200002d0      0x4  PartialDrainProcess.obj [2]
    _appliance_segment    zero     0x200002d4      0x8  PluggingMonitor.obj [2]
    _appliance_segment    zero     0x200002dc      0x9  Regenerate.obj [2]
    _appliance_segment    zero     0x200002e5      0x1  DishAuxVar.obj [2]
    _appliance_segment    zero     0x200002e6      0x1  DishAuxVar.obj [2]
    _appliance_segment    zero     0x200002e7      0x1  DishAuxVar.obj [2]
    _appliance_segment    zero     0x200002e8     0x2c  Regulations.obj [2]
    _appliance_segment    zero     0x20000314     0x2c  Regulations.obj [2]
    _appliance_segment    zero     0x20000340      0xc  RinseAid.obj [2]
    _appliance_segment    zero     0x2000034c      0x4  SW05SoftwareTest.obj [2]
    _appliance_segment    zero     0x20000350      0x4  SaltSensingMonitor.obj [2]
    _appliance_segment    zero     0x20000354      0xc  SensedDrainProcess.obj [2]
    _appliance_segment    zero     0x20000360      0x8  SensedDrainProcess.obj [2]
    _appliance_segment    zero     0x20000368     0x20  StabilityControl.obj [2]
    _appliance_segment    zero     0x20000388      0xc  StabilityControlLoopMonitor.obj [2]
    _appliance_segment    zero     0x20000394     0x24  StatisticsDish.obj [2]
    _appliance_segment    zero     0x200003b8     0x14  Supervisor.obj [2]
    _appliance_segment    zero     0x200003cc      0x8  TankDrain.obj [2]
    _appliance_segment    zero     0x200003d4      0x9  TankFill.obj [2]
    _appliance_segment    zero     0x200003dd      0x1  DishAuxVar.obj [2]
    _appliance_segment    zero     0x200003de      0x1  DishAuxVar.obj [2]
    _appliance_segment    zero     0x200003df      0x1  DishAuxVar.obj [2]
    _appliance_segment    zero     0x200003e0      0x8  TestMgr.obj [2]
    _appliance_segment    zero     0x200003e8      0x6  TimeElapse.obj [2]
    _appliance_segment    zero     0x200003ee      0x1  DishAuxVar.obj [2]
    _appliance_segment    zero     0x200003ef      0x1  DishAuxVar.obj [2]
    _appliance_segment    zero     0x200003f0     0x18  TridgeDetergent.obj [2]
    _appliance_segment    zero     0x20000408      0xc  Variable.obj [2]
    _appliance_segment    zero     0x20000414      0x4  Vwi.obj [2]
    _appliance_segment    zero     0x20000418      0x4  NVData.obj [2]
    _appliance_segment    zero     0x2000041c      0x4  OWIMonitor.obj [2]
    _appliance_segment    zero     0x20000420      0x1  DishAuxVar.obj [2]
    _appliance_segment    zero     0x20000421      0x1  DishAuxVar.obj [2]
    _appliance_segment    zero     0x20000422      0x1  DoorMonitor.obj [2]
    _appliance_segment    zero     0x20000423      0x4  HotHighPotMonitor.obj [2]
    _appliance_segment    zero     0x20000427      0x1  NVData.obj [2]
    _appliance_segment    zero     0x20000428      0x4  RinseAidMonitor.obj [2]
    _appliance_segment    zero     0x2000042c      0x1  Supervisor.obj [2]
    _appliance_segment    zero     0x2000042d      0x1  TestMgr.obj [2]
    _appliance_segment    zero     0x2000042e      0x1  Variable.obj [2]
    _appliance_segment    zero     0x2000042f      0x1  WashHeaterFaultMonitor.obj [2]
  NVDATA_SECTION_STATISTICS
                                   0x20000430    0x32c  <Block>
    _statistics_segment   zero     0x20000430     0x20  API019ProductInfo.obj [2]
    _statistics_segment   zero     0x20000450      0x4  NVData.obj [2]
    _statistics_segment   zero     0x20000454      0x4  SW05SoftwareTest.obj [2]
    _statistics_segment   zero     0x20000458    0x304  Statistics.obj [2]
  NVDATA_SECTION_STATIC_CFG
                                   0x2000075c    0x104  <Block>
    _static_cfg_segment   zero     0x2000075c    0x100  API019ProductInfo.obj [2]
    _static_cfg_segment   zero     0x2000085c      0x4  SW05SoftwareTest.obj [2]
                                 - 0x20000860    0x828

"P5", part 1 of 3:                               0x294
  P5-1                             0x20000860    0x28e  <Init block>
    .data                 inited   0x20000860     0x48  OS_Global.o [6]
    .data                 inited   0x200008a8     0x14  AirlockMonitor.obj [2]
    .data                 inited   0x200008bc     0x18  Gpio.obj [2]
    .data                 inited   0x200008d4     0x50  PartialDrainProcess.obj [2]
    .data                 inited   0x20000924     0x14  PartialDrainProcess.obj [2]
    .data                 inited   0x20000938     0x2c  SensedDrainProcess.obj [2]
    .data                 inited   0x20000964     0x1c  StandbyManager.obj [2]
    .data                 inited   0x20000980      0xc  WashHeaterFaultMonitor.obj [2]
    Veneer                inited   0x2000098c     0x10  - Linker created -
    Veneer                inited   0x2000099c     0x10  - Linker created -
    .textrw               inited   0x200009ac    0x140  Flash.obj [2]
    .data                 inited   0x20000aec      0x2  ProductInfo.obj [2]
  __DLIB_PERTHREAD                 0x20000af0      0x4  <Block>
    __DLIB_PERTHREAD-1             0x20000af0      0x4  <Init block>
      __DLIB_PERTHREAD    inited   0x20000af0      0x4  errno.o [4]
  .bss                    rw data  0x20000af4      0x0  CortexM0Plus_Macro.obj [2]
                                 - 0x20000af4    0x294

"P5", part 2 of 3:                                0x10
  .noinit                 uninit   0x20000af4     0x10  SRException.obj [2]
                                 - 0x20000b04     0x10

"P5", part 3 of 3:                              0x44a4
  .bss                    zero     0x20000b04   0x17c4  mc_rec.obj [2]
  .bss                    zero     0x200022c8    0x40c  Reveal.obj [2]
  .bss                    zero     0x200026d4    0x2a0  Hbl.obj [2]
  .bss                    zero     0x20002974    0x294  API010PollVar.obj [2]
  .bss                    zero     0x20002c08    0x1fc  Reveal.obj [2]
  .bss                    zero     0x20002e04    0x1d8  SRMain.obj [2]
  .bss                    zero     0x20002fdc    0x15c  Reveal.obj [2]
  .bss                    zero     0x20003138    0x140  SystemTimers.obj [2]
  .bss                    zero     0x20003278    0x134  Hbl.obj [2]
  .bss                    zero     0x200033ac    0x134  Mcl.obj [2]
  .bss                    zero     0x200034e0    0x12c  AnalogLLI.obj [2]
  .bss                    zero     0x2000360c    0x11c  SensedDrainProcess.obj [2]
  .bss                    zero     0x20003728    0x100  Reveal.obj [2]
  .bss                    zero     0x20003828    0x100  Win.obj [2]
  .bss                    zero     0x20003928     0xfc  APIMotorControl.obj [2]
  .bss                    zero     0x20003a24     0xd0  Hbl.obj [2]
  .bss                    zero     0x20003af4     0xa0  Hbl.obj [2]
  .bss                    zero     0x20003b94     0x84  Reveal.obj [2]
  .bss                    zero     0x20003c18     0x80  SetLoadQueue.obj [2]
  .bss                    zero     0x20003c98     0x6c  API007BulkData.obj [2]
  .bss                    zero     0x20003d04     0x6c  API013RemoteFunction.obj [2]
  .bss                    zero     0x20003d70     0x6c  TimingAnalysis.obj [2]
  .bss                    zero     0x20003ddc     0x64  Mcl.obj [2]
  .bss                    zero     0x20003e40     0x64  Mcl.obj [2]
  .bss                    zero     0x20003ea4     0x60  HeaterCalcificationDetectionMonitor.obj [2]
  .bss                    zero     0x20003f04     0x60  PumpControl.obj [2]
  .bss                    zero     0x20003f64     0x60  Timer.obj [2]
  .bss                    zero     0x20003fc4     0x54  Mcl.obj [2]
  .bss                    zero     0x20004018     0x54  OWIVoltageRegulatedOutputModel.obj [2]
  .bss                    zero     0x2000406c     0x4c  TridgeDetergent.obj [2]
  .bss                    zero     0x200040b8     0x4c  Win.obj [2]
  .bss                    zero     0x20004104     0x48  AlternateCtrl.obj [2]
  .bss                    zero     0x2000414c     0x48  mc_serial.obj [2]
  .bss                    zero     0x20004194     0x44  DishAuxVar.obj [2]
  .bss                    zero     0x200041d8     0x44  SW05SoftwareTest.obj [2]
  .bss                    zero     0x2000421c     0x42  TriacCurrentMonitor.obj [2]
  .bss                    zero     0x2000425e      0xa  API011AppCtrl.obj [2]
  .bss                    zero     0x20004268     0x40  OWICalibrationProcess.obj [2]
  .bss                    zero     0x200042a8     0x40  Uart.obj [2]
  .bss                    zero     0x200042e8     0x40  Win.obj [2]
  .bss                    zero     0x20004328     0x40  ZeroCross.obj [2]
  .bss                    zero     0x20004368     0x3c  DishAuxVar.obj [2]
  .bss                    zero     0x200043a4     0x3c  LoadsControl.obj [2]
  .bss                    zero     0x200043e0     0x3c  OwiVroRead.obj [2]
  .bss                    zero     0x2000441c     0x3c  SRTaskMonitor.obj [2]
  .bss                    zero     0x20004458     0x3c  SRTaskSequence.obj [2]
  .bss                    zero     0x20004494     0x3c  Vwi.obj [2]
  .bss                    zero     0x200044d0     0x38  Airlock_Model.obj [2]
  .bss                    zero     0x20004508     0x38  Fault.obj [2]
  .bss                    zero     0x20004540     0x38  HeaterShadowing.obj [2]
  .bss                    zero     0x20004578     0x34  API012Exp.obj [2]
  .bss                    zero     0x200045ac     0x34  DigitalLLI.obj [2]
  .bss                    zero     0x200045e0     0x34  MclFireAngleCtrl.obj [2]
  .bss                    zero     0x20004614     0x34  ProductInfo.obj [2]
  .bss                    zero     0x20004648     0x30  Estimator.obj [2]
  .bss                    zero     0x20004678     0x30  Hbl.obj [2]
  .bss                    zero     0x200046a8     0x30  Log.obj [2]
  .bss                    zero     0x200046d8     0x30  Reveal.obj [2]
  .bss                    zero     0x20004708     0x2c  Uart.obj [2]
  .bss                    zero     0x20004734     0x2c  mc_scope.obj [2]
  .bss                    zero     0x20004760     0x28  CartridgeDetectionMonitor.obj [2]
  .bss                    zero     0x20004788     0x28  DigitalOutputPilot.obj [2]
  .bss                    zero     0x200047b0     0x28  MclObserver.obj [2]
  .bss                    zero     0x200047d8     0x28  SFUpdater.obj [2]
  .bss                    zero     0x20004800     0x24  ActivePower.obj [2]
  .bss                    zero     0x20004824     0x22  DCLoadCurrentMonitor.obj [2]
  .bss                    zero     0x20004846      0xa  FaultStatusMonitor.obj [2]
  .bss                    zero     0x20004850     0x20  PluggingMonitor.obj [2]
  .bss                    zero     0x20004870     0x20  SteadyPwmProfilePilot.obj [2]
  .bss                    zero     0x20004890     0x20  Timer.obj [2]
  .bss                    zero     0x200048b0     0x1d  CrossLoads.obj [2]
  .bss                    zero     0x200048cd      0x6  LowPower.obj [2]
  .bss                    zero     0x200048d3      0x5  PilotRelayFaultMonitor.obj [2]
  .bss                    zero     0x200048d8     0x1d  PwmHiResPilot.obj [2]
  .bss                    zero     0x200048f5      0x6  Mode.obj [2]
  .bss                    zero     0x200048fb      0x1  API007BulkData.obj [2]
  .bss                    zero     0x200048fc     0x1c  FlowMeterFaultMonitor.obj [2]
  .bss                    zero     0x20004918     0x1c  Hbl.obj [2]
  .bss                    zero     0x20004934     0x1c  OWIOneShot.obj [2]
  .bss                    zero     0x20004950     0x1b  TriacCurrentMonitor.obj [2]
  .bss                    zero     0x2000496b      0x1  AlternateLoad.obj [2]
  .bss                    zero     0x2000496c     0x1a  TriacVoltageMonitor.obj [2]
  .bss                    zero     0x20004986      0xa  HeaterCalcificationDetectionMaster.obj [2]
  .bss                    zero     0x20004990     0x19  PulseCounterLLI.obj [2]
  .bss                    zero     0x200049a9      0x6  MoisturePreventionMonitor.obj [2]
  .bss                    zero     0x200049af      0x1  BrownOut.obj [2]
  .bss                    zero     0x200049b0     0x19  PwmPilot.obj [2]
  .bss                    zero     0x200049c9      0x2  CartridgeDetectionMonitor.obj [2]
  .bss                    zero     0x200049cb      0x1  CartridgeDetectionMonitor.obj [2]
  .bss                    zero     0x200049cc     0x19  ZCRelayPilot.obj [2]
  .bss                    zero     0x200049e5      0x2  DiverterLeakFaultMonitor.obj [2]
  .bss                    zero     0x200049e7      0x1  DCLoadCurrentMonitor.obj [2]
  .bss                    zero     0x200049e8     0x18  AutostartFactoryCycleMonitor.obj [2]
  .bss                    zero     0x20004a00     0x18  ConvertGI.obj [2]
  .bss                    zero     0x20004a18     0x18  CrossLoads.obj [2]
  .bss                    zero     0x20004a30     0x18  Fault.obj [2]
  .bss                    zero     0x20004a48     0x18  Hbl.obj [2]
  .bss                    zero     0x20004a60     0x18  Hbl.obj [2]
  .bss                    zero     0x20004a78     0x18  HeatMonitor.obj [2]
  .bss                    zero     0x20004a90     0x18  HotHighPotMonitor.obj [2]
  .bss                    zero     0x20004aa8     0x18  NormalFill.obj [2]
  .bss                    zero     0x20004ac0     0x18  OWI_VRO_Monitor.obj [2]
  .bss                    zero     0x20004ad8     0x18  PartialDrainProcess.obj [2]
  .bss                    zero     0x20004af0     0x18  PeakDetector.obj [2]
  .bss                    zero     0x20004b08     0x18  Regulations.obj [2]
  .bss                    zero     0x20004b20     0x18  SW05SoftwareTest.obj [2]
  .bss                    zero     0x20004b38     0x18  Status.obj [2]
  .bss                    zero     0x20004b50     0x18  TriacVoltageMonitor.obj [2]
  .bss                    zero     0x20004b68     0x18  Uart.obj [2]
  .bss                    zero     0x20004b80     0x18  Uart.obj [2]
  .bss                    zero     0x20004b98     0x17  SRIsrMonitor.obj [2]
  .bss                    zero     0x20004baf      0x1  DataFlash.obj [2]
  .bss                    zero     0x20004bb0     0x16  AlternateLoad.obj [2]
  .bss                    zero     0x20004bc6      0xa  StabilityControl.obj [2]
  .bss                    zero     0x20004bd0     0x14  ActivateTask.obj [2]
  .bss                    zero     0x20004be4     0x14  AlternateCtrl.obj [2]
  .bss                    zero     0x20004bf8     0x14  ClassAFill.obj [2]
  .bss                    zero     0x20004c0c     0x14  FillValveStuckOn.obj [2]
  .bss                    zero     0x20004c20     0x14  Hbl.obj [2]
  .bss                    zero     0x20004c34     0x14  Hbl.obj [2]
  .bss                    zero     0x20004c48     0x14  Hbl.obj [2]
  .bss                    zero     0x20004c5c     0x14  OWICalibrationModel.obj [2]
  .bss                    zero     0x20004c70     0x14  PumpControl.obj [2]
  .bss                    zero     0x20004c84     0x14  TankFill.obj [2]
  .bss                    zero     0x20004c98     0x14  WashMotorFaultMonitor.obj [2]
  .bss                    zero     0x20004cac     0x12  FeedbackLLI.obj [2]
  .bss                    zero     0x20004cbe      0x6  API009System.obj [2]
  .bss                    zero     0x20004cc4     0x12  TriacShortedDrainFaultMonitor.obj [2]
  .bss                    zero     0x20004cd6      0x6  Fill.obj [2]
  .bss                    zero     0x20004cdc     0x10  CartridgeDetectionMonitor.obj [2]
  .bss                    zero     0x20004cec     0x10  Fault.obj [2]
  .bss                    zero     0x20004cfc     0x10  Hbl.obj [2]
  .bss                    zero     0x20004d0c     0x10  Interpreter.obj [2]
  .bss                    zero     0x20004d1c     0x10  MclInputProc.obj [2]
  .bss                    zero     0x20004d2c     0x10  Micro.obj [2]
  .bss                    zero     0x20004d3c     0x10  MoisturePrevention.obj [2]
  .bss                    zero     0x20004d4c     0x10  SRClockMonitor.obj [2]
  .bss                    zero     0x20004d5c     0x10  TimingAnalysis.obj [2]
  .bss                    zero     0x20004d6c     0x10  VoltageRangeMonitor.obj [2]
  .bss                    zero     0x20004d7c     0x10  WaterCounterGI.obj [2]
  .bss                    zero     0x20004d8c      0xd  HeaterLoad.obj [2]
  .bss                    zero     0x20004d99      0x2  Fault.obj [2]
  .bss                    zero     0x20004d9b      0x1  DigitalOutputPilot.obj [2]
  .bss                    zero     0x20004d9c      0xd  StabilityControlLoopMonitor.obj [2]
  .bss                    zero     0x20004da9      0x2  Mci.obj [2]
  .bss                    zero     0x20004dab      0x1  DishAuxVar.obj [2]
  .bss                    zero     0x20004dac      0xc  API007App.obj [2]
  .bss                    zero     0x20004db8      0xc  API013RemoteFunction.obj [2]
  .bss                    zero     0x20004dc4      0xc  Heat.obj [2]
  .bss                    zero     0x20004dd0      0xc  Micro.obj [2]
  .bss                    zero     0x20004ddc      0xc  NVData.obj [2]
  .bss                    zero     0x20004de8      0xc  Regenerate.obj [2]
  .bss                    zero     0x20004df4      0xc  RinseAidMonitor.obj [2]
  .bss                    zero     0x20004e00      0xc  SRProductMgr.obj [2]
  .bss                    zero     0x20004e0c      0xc  Status.obj [2]
  .bss                    zero     0x20004e18      0xc  mc_serial.obj [2]
  .bss                    zero     0x20004e24      0xa  SettingFile.obj [2]
  .bss                    zero     0x20004e2e      0x6  ThermistorFaultMonitor.obj [2]
  .bss                    zero     0x20004e34      0x9  DigitalOutputMultiPilot.obj [2]
  .bss                    zero     0x20004e3d      0x2  MciZeroCross.obj [2]
  .bss                    zero     0x20004e3f      0x1  DishAuxVar.obj [2]
  .bss                    zero     0x20004e40      0x9  SaltSensingMonitor.obj [2]
  .bss                    zero     0x20004e49      0x2  NormalFill.obj [2]
  .bss                    zero     0x20004e4b      0x1  Fault.obj [2]
  .bss                    zero     0x20004e4c      0x8  API007App.obj [2]
  .bss                    zero     0x20004e54      0x8  API018Diagnostic.obj [2]
  .bss                    zero     0x20004e5c      0x8  ApplianceMgr.obj [2]
  .bss                    zero     0x20004e64      0x8  CommunicationMonitor.obj [2]
  .bss                    zero     0x20004e6c      0x8  DefaultPin.obj [2]
  .bss                    zero     0x20004e74      0x8  DiverterFaultMonitor.obj [2]
  .bss                    zero     0x20004e7c      0x8  DoorOpeningSystemMonitor.obj [2]
  .bss                    zero     0x20004e84      0x8  DoorOpeningSystemPush.obj [2]
  .bss                    zero     0x20004e8c      0x8  ExpansionLLI.obj [2]
  .bss                    zero     0x20004e94      0x8  JumpIf.obj [2]
  .bss                    zero     0x20004e9c      0x8  LITTMonitor.obj [2]
  .bss                    zero     0x20004ea4      0x8  MclZeroCross.obj [2]
  .bss                    zero     0x20004eac      0x8  OWIMonitor.obj [2]
  .bss                    zero     0x20004eb4      0x8  OWIVoltageRegulatedOutput.obj [2]
  .bss                    zero     0x20004ebc      0x8  Plugging_Model.obj [2]
  .bss                    zero     0x20004ec4      0x8  Regulations.obj [2]
  .bss                    zero     0x20004ecc      0x8  RinseAid.obj [2]
  .bss                    zero     0x20004ed4      0x8  SRPowerMgr.obj [2]
  .bss                    zero     0x20004edc      0x8  SRTimerReference.obj [2]
  .bss                    zero     0x20004ee4      0x8  SensedDrainModel.obj [2]
  .bss                    zero     0x20004eec      0x8  Statistics.obj [2]
  .bss                    zero     0x20004ef4      0x8  StatusLed.obj [2]
  .bss                    zero     0x20004efc      0x8  SubCycle.obj [2]
  .bss                    zero     0x20004f04      0x8  SupervisorExtMonitor.obj [2]
  .bss                    zero     0x20004f0c      0x8  SystemTimers.obj [2]
  .bss                    zero     0x20004f14      0x8  TankDrain.obj [2]
  .bss                    zero     0x20004f1c      0x8  OS_Stat.o [6]
  .bss                    zero     0x20004f24      0x5  ChargePumpPilot.obj [2]
  .bss                    zero     0x20004f29      0x2  ProbeInput.obj [2]
  .bss                    zero     0x20004f2b      0x1  FdmTimer.obj [2]
  .bss                    zero     0x20004f2c      0x5  DoorMonitor.obj [2]
  .bss                    zero     0x20004f31      0x2  SetLoadQueue.obj [2]
  .bss                    zero     0x20004f33      0x1  Hbl.obj [2]
  .bss                    zero     0x20004f34      0x5  Maintain.obj [2]
  .bss                    zero     0x20004f3a      0x2  DishAuxVar.obj [2]
  .bss                    zero     0x20004f3c      0x5  Supervisor.obj [2]
  .bss                    zero     0x20004f41      0x4  API005LowLevel.obj [2]
  .bss                    zero     0x20004f46      0x2  DishAuxVar.obj [2]
  .bss                    zero     0x20004f48      0x4  API019ProductInfo.obj [2]
  .bss                    zero     0x20004f4c      0x4  BrownOut.obj [2]
  .bss                    zero     0x20004f50      0x4  MclTriacDrive.obj [2]
  .bss                    zero     0x20004f54      0x4  Mode.obj [2]
  .bss                    zero     0x20004f58      0x4  OWICalibrationProcess.obj [2]
  .bss                    zero     0x20004f5c      0x4  PORTimeMonitor.obj [2]
  .bss                    zero     0x20004f60      0x4  PumpFlushRequestMonitor.obj [2]
  .bss                    zero     0x20004f64      0x4  StatisticsDish.obj [2]
  .bss                    zero     0x20004f68      0x4  ZeroCrossMonitor.obj [2]
  .bss                    zero     0x20004f6c      0x4  OS_Global.o [6]
  .bss                    zero     0x20004f70      0x4  OS_Global.o [6]
  .bss                    zero     0x20004f74      0x4  OS_Global.o [6]
  .bss                    zero     0x20004f78      0x4  OS_Global.o [6]
  .bss                    zero     0x20004f7c      0x4  OS_Global.o [6]
  .bss                    zero     0x20004f80      0x4  OS_Kern.o [6]
  .bss                    zero     0x20004f84      0x3  TriacMci.obj [2]
  .bss                    zero     0x20004f87      0x1  HeaterLeakageMonitor.obj [2]
  .bss                    zero     0x20004f88      0x1  HeaterLineRelayOpenMonitor.obj [2]
  .bss                    zero     0x20004f89      0x1  HeaterNeutralRelayOpenMonitor.obj [2]
  .bss                    zero     0x20004f8a      0x1  HeaterNeutralRelayOpenMonitor.obj [2]
  .bss                    zero     0x20004f8b      0x1  HeaterOpenAndLineRelayClosedMonitor.obj [2]
  .bss                    zero     0x20004f8c      0x1  HeaterOpenMonitor.obj [2]
  .bss                    zero     0x20004f8d      0x1  HeaterShadowing.obj [2]
  .bss                    zero     0x20004f8e      0x1  HeaterShadowing.obj [2]
  .bss                    zero     0x20004f8f      0x1  Mode.obj [2]
  .bss                    zero     0x20004f90      0x1  NVData.obj [2]
  .bss                    zero     0x20004f91      0x1  OWICalibrationProcess.obj [2]
  .bss                    zero     0x20004f92      0x1  OWIOneShot.obj [2]
  .bss                    zero     0x20004f93      0x1  OverfillMonitor.obj [2]
  .bss                    zero     0x20004f94      0x1  PilotRelayStuckClosedMonitor.obj [2]
  .bss                    zero     0x20004f95      0x1  PilotRelayStuckOpenMonitor.obj [2]
  .bss                    zero     0x20004f96      0x1  PumpFlushRequestMonitor.obj [2]
  .bss                    zero     0x20004f97      0x1  Sanitization.obj [2]
  .bss                    zero     0x20004f98      0x1  StatusLed.obj [2]
  .bss                    zero     0x20004f99      0x1  SteadyPwmProfilePilot.obj [2]
  .bss                    zero     0x20004f9a      0x1  TestMgr.obj [2]
  .bss                    zero     0x20004f9b      0x1  TestMgr.obj [2]
  .bss                    zero     0x20004f9c      0x1  ThermistorOpenMonitor.obj [2]
  .bss                    zero     0x20004f9d      0x1  ThermistorShortedMonitor.obj [2]
  .bss                    zero     0x20004f9e      0x1  TriacCurrentMonitor.obj [2]
  .bss                    zero     0x20004f9f      0x1  TriacShortedDrainFaultMonitor.obj [2]
  .bss                    zero     0x20004fa0      0x1  TriacVoltageMonitor.obj [2]
  .bss                    zero     0x20004fa1      0x1  OS_Global.o [6]
  .bss                    zero     0x20004fa2      0x1  OS_Global.o [6]
  .bss                    zero     0x20004fa3      0x1  OS_Global.o [6]
  .bss                    zero     0x20004fa4      0x1  OS_Global.o [6]
  .bss                    zero     0x20004fa5      0x1  OS_Global.o [6]
  .bss                    zero     0x20004fa6      0x1  OS_Global.o [6]
                                 - 0x20004fa7   0x44a3

"A6":                                            0xf5c
  STACKS                           0x20023070    0xf5c  <Block>
    STACK_OVERFLOW_SIGNATURE
                                   0x20023070     0x10  <Block>
      STACK_OVERFLOW_SIGNATURE
                          uninit   0x20023070     0x10  <Block tail>
    SYSTEM_STACK                   0x20023080    0x400  <Block>
      CSTACK                       0x20023080    0x400  <Block>
        CSTACK            uninit   0x20023080    0x400  <Block tail>
    TASKS_STACK                    0x20023480    0xb3c  <Block>
      TASKS_STACK_SIG_BEFORE_THREADS
                          zero     0x20023480      0x4  SRMain.obj [2]
      TASKS_STACK_MAIN_THREAD
                          zero     0x20023484    0x200  SRMain.obj [2]
      TASKS_STACK_SIG_BETWEEN_THREADS_1
                          zero     0x20023684      0x4  SRMain.obj [2]
      TASKS_STACK_APPMGR_THREAD
                          zero     0x20023688    0x320  SRMain.obj [2]
      TASKS_STACK_SIG_BETWEEN_THREADS_2
                          zero     0x200239a8      0x4  SRMain.obj [2]
      TASKS_STACK_SIG_BETWEEN_THREADS_3
                          zero     0x200239ac      0x4  SRMain.obj [2]
      TASKS_STACK_COMMUNICATION_THREAD
                          zero     0x200239b0    0x200  SRMain.obj [2]
      TASKS_STACK_SIG_BETWEEN_THREADS_4
                          zero     0x20023bb0      0x4  SRMain.obj [2]
      TASKS_STACK_FASTAPPMGR_THREAD
                          zero     0x20023bb4    0x200  SRMain.obj [2]
      TASKS_STACK_SIG_BETWEEN_THREADS_5
                          zero     0x20023db4      0x4  SRMain.obj [2]
      TASKS_STACK_PROGRAMMINGASYNCH_THREAD
                          zero     0x20023db8    0x200  SRMain.obj [2]
      TASKS_STACK_SIG_AFTER_THREADS
                          zero     0x20023fb8      0x4  SRMain.obj [2]
    INTERRUPT_STACK                0x20023fbc      0x0  <Block>
    STACK_UNDERFLOW_SIGNATURE
                                   0x20023fbc     0x10  <Block>
      STACK_UNDERFLOW_SIGNATURE
                          uninit   0x20023fbc     0x10  <Block tail>
                                 - 0x20023fcc    0xf5c

"P2":                                             0x2c
  .RESET_INFO_FOOTER      uninit   0x20023fd4     0x2c  Micro.obj [2]
                                 - 0x20024000     0x2c


*******************************************************************************
*** INIT TABLE
***

          Address     Size
          -------     ----
Zero (__iar_zero_init3)
    17 destination ranges, total size 0x5807:
          0x20000038     0xc
          0x20000044   0x3ec
          0x20000430   0x32c
          0x2000075c   0x104
          0x20000b04  0x44a3
          0x20023480     0x4
          0x20023484   0x200
          0x20023684     0x4
          0x20023688   0x320
          0x200239a8     0x4
          0x200239ac     0x4
          0x200239b0   0x200
          0x20023bb0     0x4
          0x20023bb4   0x200
          0x20023db4     0x4
          0x20023db8   0x200
          0x20023fb8     0x4

Copy/packbits (__iar_packbits_init_single3)
    1 source range, total size 0x1d6 (71% of destination):
          0x080336ca   0x1d6
    1 destination range, total size 0x28e:
          0x20000860   0x28e

Copy/packbits (__iar_packbits_init_single3)
    1 source range, total size 0x2 (50% of destination):
          0x080336c8     0x2
    1 destination range, total size 0x4:
          0x20000af0     0x4



*******************************************************************************
*** MODULE SUMMARY
***

    Module                                   ro code  rw code  ro data  rw data
    ------                                   -------  -------  -------  -------
C:\Data\Nucleus_Dev\Vostok_ACU_A\config\tmp: [1]
    settingfile.bin                                                  2
    ---------------------------------------------------------------------------
    Total:                                                           2

C:\Data\Nucleus_Dev\Vostok_ACU_A\obj: [2]
    API003Disc.obj                               404
    API004Debug.obj                              168
    API005LowLevel.obj                         1 716                          4
    API007App.obj                                496                         92
    API007BulkData.obj                           894                        109
    API007Data.obj                             2 048
    API009System.obj                             582                          6
    API010PollVar.obj                          2 272                        660
    API011AppCtrl.obj                          1 572                         10
    API012Exp.obj                                684                         52
    API013RemoteFunction.obj                     508                        120
    API018Diagnostic.obj                       1 380                          8
    API019ProductInfo.obj                      1 880                        292
    APIMotorControl.obj                          556                        252
    ActivateTask.obj                           1 028                         22
    ActivePower.obj                              348                         36
    AirlockMonitor.obj                           220                15       20
    Airlock_Model.obj                            636                         56
    AlternateCtrl.obj                          3 232                        129
    AlternateLoad.obj                          2 636                         23
    AnalogLLI.obj                              1 212                        300
    ApplianceMgr.obj                             464                          8
    Atod.obj                                     672
    AutostartFactoryCycleMonitor.obj             488                         26
    BoardDebugging.obj                            26
    BrownOut.obj                                 416                          5
    Callback.obj                                 308
    CartridgeDetectionMonitor.obj              1 564                        111
    ChargePumpPilot.obj                          312                          5
    ClassAFill.obj                             1 240                         29
    CommunicationMonitor.obj                     318                          8
    Condition.obj                                560
    Convert.obj                                1 286                16
    ConvertGI.obj                                174                         24
    CortexM0Plus_Macro.obj                       380
    Crc16.obj                                    624
    Crc8.obj                                     300
    CrossLoads.obj                             3 008                         53
    CycleResume.obj                              200
    DCLoadCurrentMonitor.obj                   1 496                         35
    DataFlash.obj                                 76                          1
    Debug.obj                                     16
    DefaultPin.obj                               202                          8
    DigitalLLI.obj                               352                         52
    DigitalOutputMultiPilot.obj                  464                          9
    DigitalOutputPilot.obj                       382                         41
    DishAuxVar.obj                             1 236                        186
    DiverterFaultMonitor.obj                     398                          8
    DiverterLeakFaultMonitor.obj                 200                          2
    DoorMonitor.obj                              348                          6
    DoorOpeningSystemMonitor.obj                 496                         12
    DoorOpeningSystemPull.obj                     78
    DoorOpeningSystemPush.obj                    364                          8
    EmbOSBasic.obj                               304                 4
    Estimator.obj                              2 232                         78
    ExpansionLLI.obj                             108                          8
    ExtInterrupt.obj                             236
    FITMgr.obj                                                      36
    Fault.obj                                  2 604                        151
    FaultStatusMonitor.obj                       272                         10
    FdmCounter.obj                                52
    FdmTimer.obj                                 256                          1
    FeedbackLLI.obj                            1 144                         18
    Fill.obj                                   1 252                         54
    FillValveStuckOn.obj                       1 092                         20
    Filter.obj                                   256
    Flash.obj                                    644      320      230
    FlowMeterFaultMonitor.obj                    260                         28
    GlitchFilter.obj                              80
    Gpio.obj                                     388                17       24
    HCD_Monitor.obj                            1 216
    Hbl.obj                                    6 928             1 400    1 549
    HblCommon.obj                                112
    Heat.obj                                   1 096                         24
    HeatMonitor.obj                              616                         24
    HeaterCalcificationDetectionMaster.obj       256                         10
    HeaterCalcificationDetectionMonitor.obj    1 724                        137
    HeaterLeakageMonitor.obj                     380                          1
    HeaterLineRelayOpenMonitor.obj               360                          1
    HeaterLoad.obj                               584                         13
    HeaterNeutralRelayOpenMonitor.obj            464                          2
    HeaterOpenAndLineRelayClosedMonitor.obj      412                          1
    HeaterOpenMonitor.obj                        392                          1
    HeaterShadowing.obj                        1 548                         58
    HotHighPotMonitor.obj                        428                         28
    IIRFilter.obj                                 54
    IntMgr.obj                                   540
    Interpreter.obj                            3 936                64       77
    InterruptVector.obj                           40               188
    JumpIf.obj                                   536                          8
    LITTMonitor.obj                              484                          8
    LoadsControl.obj                           2 272                         96
    Log.obj                                      272                         48
    LowPower.obj                                 484                          6
    MCUDebug.obj                                   6
    Maintain.obj                                 824                         21
    MasterCommander.obj                           36
    MathCalc.obj                                   2
    Mci.obj                                      496                          2
    MciZeroCross.obj                              76                          2
    Mcl.obj                                    1 476                        592
    MclFireAngleCtrl.obj                       2 588                         52
    MclInputProc.obj                             536                         16
    MclObserver.obj                            1 172                         40
    MclTriacDrive.obj                            880                          4
    MclZeroCross.obj                             100                          8
    McuGetDataMonitor.obj                          2
    Micro.obj                                  3 160                        124
    MicroExtInterruptJumpTable.obj                16                 8
    Millis.obj                                   360                          4
    Mode.obj                                     700                         11
    Modifier.obj                               1 360
    MoisturePrevention.obj                       210                         16
    MoisturePreventionMonitor.obj                868                         28
    NVData.obj                                 1 952                         38
    NormalFill.obj                             2 112                         42
    OS_Error.obj                                  44
    OWI.obj                                      106
    OWICalibrationModel.obj                      980                         20
    OWICalibrationProcess.obj                    428                         73
    OWIContinousReading.obj                       70
    OWIMonitor.obj                               428                         12
    OWIOneShot.obj                               544                         29
    OWIVoltageRegulatedOutput.obj                212                          8
    OWIVoltageRegulatedOutputModel.obj           772                         84
    OWI_VRO_Monitor.obj                        1 200                         24
    OverfillMonitor.obj                          148                          1
    OwiVroContinuousReading.obj                   34
    OwiVroRead.obj                             1 820                        136
    PORTimeMonitor.obj                           252                          4
    PartialDrainModel.obj                        696
    PartialDrainProcess.obj                      706                72      128
    PeakDetector.obj                             212                         24
    Pi.obj                                       164
    PilotRelayFaultMonitor.obj                   208                          5
    PilotRelayStuckClosedMonitor.obj             352                          1
    PilotRelayStuckOpenMonitor.obj               352                          1
    PluggingMonitor.obj                          320                         40
    Plugging_Model.obj                           734                          8
    ProbeInput.obj                               274                          2
    ProductInfo.obj                              196                 1       54
    PulseCounterLLI.obj                          756                         25
    PumpCommand.obj                              192
    PumpControl.obj                            1 536                        122
    PumpFlushRequestMonitor.obj                   32                          5
    PwmHiResPilot.obj                          1 508                         29
    PwmPilot.obj                               1 304                         25
    Regenerate.obj                             1 136                         21
    RegulationAccept.obj                          88
    Regulations.obj                            1 212                        120
    Reveal.obj                                 4 004                      2 328
    RinseAid.obj                                 648                         20
    RinseAidDispense.obj                         134
    RinseAidMonitor.obj                          656                         16
    RtcDriver.obj                                494
    SFUpdater.obj                                256                         40
    SRClockMonitor.obj                           416                         16
    SRData.obj                                 1 298
    SRException.obj                              160                         16
    SRIsrMonitor.obj                             680                         23
    SRMain.obj                                 2 480                      3 348
    SRPowerMgr.obj                               536                          8
    SRProductMgr.obj                             308                         12
    SRSignature.obj                               40
    SRTaskMonitor.obj                          1 408                         60
    SRTaskSequence.obj                           608                56       60
    SRTimerReference.obj                          64                          8
    SW05SoftwareTest.obj                         996                        104
    SaltSensingMonitor.obj                       488                         13
    Sanitization.obj                             156                          3
    Selector.obj                               1 010
    SensedDrainModel.obj                       2 116                          8
    SensedDrainProcess.obj                     2 248                31      348
    SetLoadQueue.obj                             400                        130
    SetVariable.obj                              360
    SettingFile.obj                            1 086                         10
    StabilityControl.obj                       1 828                         42
    StabilityControlLoopMonitor.obj              640                         25
    StackAnalysis.obj                            108
    StandbyManager.obj                           124                20       28
    Statistics.obj                             1 728                        780
    StatisticsDish.obj                         1 964                         40
    Status.obj                                   632                         36
    StatusLed.obj                                748                          9
    SteadyPwmProfilePilot.obj                    712                         33
    SubCycle.obj                                 302                          8
    Supervisor.obj                             7 206                         26
    SupervisorExtMonitor.obj                     252                          8
    SystemTimers.obj                           1 372                        328
    TankDrain.obj                                724                         16
    TankFill.obj                               1 080                         29
    TestMgr.obj                                  832                         11
    ThermistorFaultMonitor.obj                   172                          6
    ThermistorOpenMonitor.obj                    304                          1
    ThermistorShortedMonitor.obj                 320                          1
    TimeCapture.obj                              224
    TimeElapse.obj                               104                          6
    Timer.obj                                  3 528                        128
    TimerInterrupt.obj                           160
    TimerInterruptExt.obj                          2
    TimingAnalysis.obj                           304                        124
    TriacCurrentMonitor.obj                    3 684                         94
    TriacMci.obj                                 342                          3
    TriacShortedDrainFaultMonitor.obj            692                         19
    TriacVoltageMonitor.obj                    1 132                         51
    TridgeDetergent.obj                        1 160                        100
    Uart.obj                                   2 656                        156
    Utilities.obj                                120
    Variable.obj                               2 688                12       13
    VirtualPin.obj                                 4               512
    VoltageRangeMonitor.obj                      696                         16
    Vwi.obj                                    1 102                         64
    WashHeaterFaultMonitor.obj                   440                 9       13
    WashMotorFaultMonitor.obj                    656                         20
    WaterCounterGI.obj                           396                         16
    Win.obj                                    1 420                        396
    ZCRelayPilot.obj                             572                         25
    ZeroCross.obj                              1 524                         64
    ZeroCrossMonitor.obj                         172                          4
    mc_llmem.obj                                 148
    mc_protocol.obj                              562
    mc_rec.obj                                   892                      6 084
    mc_scope.obj                                 172                         44
    mc_serial.obj                                444                         84
    ---------------------------------------------------------------------------
    Total:                                   187 276      320    2 691   22 835

command line: [3]
    ---------------------------------------------------------------------------
    Total:

dl6M_tln.a: [4]
    abs.o                                          8
    errno.o                                       16                 2        4
    exit.o                                         8
    low_level_init.o                               4
    ---------------------------------------------------------------------------
    Total:                                        36                 2        4

m6M_tl.a: [5]
    DblAddSub.o                                  436
    DblCmpEq.o                                    36
    DblCmpGe.o                                    50
    DblCmpLe.o                                    50
    DblDiv.o                                     194
    DblMul.o                                     388
    DblToI32.o                                    82
    FltAddSub.o                                  288
    FltCmpEq.o                                    32
    FltCmpGe.o                                    40
    FltCmpLe.o                                    38
    FltDiv.o                                     170
    FltMul.o                                     176
    FltToDbl.o                                    50
    FltToS32.o                                    58
    I32ToDbl.o                                    52
    I32ToFlt.o                                    54
    ceil.o                                        88
    floor.o                                       88
    lround.o                                      76
    lroundf.o                                     60
    powf.o                                       734
    round.o                                       72
    roundf.o                                      60
    xdint.o                                      132
    xfdint.o                                      86
    xfdscale.o                                   108
    xfexp.o                                      532
    xflog.o                                       44
    ---------------------------------------------------------------------------
    Total:                                     4 274

os6m_tl__dp.a: [6]
    OS_CreateTask.o                              332
    OS_GetCPUState.o                              22
    OS_Global.o                                                     55       98
    OS_Info.o                                     12
    OS_InitMode.o                                 28
    OS_Kern.o                                  1 780                          4
    OS_StackInfo.o                                24
    OS_Stat.o                                    160                          8
    OS_SysStackInfo.o                             88
    OS_TICK_Handle.o                             116
    OS_TaskStackInfo.o                           140
    OS_Timing.o                                  156
    rtos.o                                       292
    xtls.o                                        28
    ---------------------------------------------------------------------------
    Total:                                     3 178                55      110

rt6M_tl.a: [7]
    ABImemcpy.o                                   92
    ABImemmove.o                                  38
    ABImemset.o                                  100
    I32DivModFast.o                              224
    I64DivMod.o                                  168
    I64DivZer.o                                    2
    I64Mul.o                                      50
    IntDivZer.o                                    2
    cexit.o                                       10
    cmain.o                                       26
    cstartup_M.o                                  12
    data_init.o                                   40
    memchr.o                                      24
    memcmp.o                                      40
    packbits_init_single.o                        60
    uread4.o                                      22
    uwrite4.o                                     20
    zero_init3.o                                  60
    ---------------------------------------------------------------------------
    Total:                                       990

shb_l.a: [8]
    exit.o                                        20
    ---------------------------------------------------------------------------
    Total:                                        20

    Gaps                                          78                 4        4
    Linker created                                16       32      200    1 056
-------------------------------------------------------------------------------
    Grand Total:                             195 868      352    2 958   24 009


*******************************************************************************
*** ENTRY LIST
***

Entry                      Address    Size  Type      Object
-----                      -------    ----  ----      ------
.iar.init_table$$Base   0x080335d4           --   Gb  - Linker created -
.iar.init_table$$Limit  0x08033684           --   Gb  - Linker created -
.intvec$$Base           0x08003000           --   Gb  - Linker created -
.intvec$$Limit          0x080030bc           --   Gb  - Linker created -
?main                   0x0801e5f1          Code  Gb  cmain.o [7]
ACU_DATA_HOLDER         0x08008e90   0x2a8  Data  Lc  Variable.obj [2]
AC_Line_Lower_Threshold
                        0x20004f6a     0x2  Data  Lc  ZeroCrossMonitor.obj [2]
AC_Line_Value           0x200041d2     0x2  Data  Lc  DishAuxVar.obj [2]
AC_Wait_MCU_Reset_Timer_Handle
                        0x20004138    0x14  Data  Lc  AlternateCtrl.obj [2]
AC_Wait_Status_Timer_Handle
                        0x20004be4    0x14  Data  Lc  AlternateCtrl.obj [2]
AC_Wait_Stopped_Attempts
                        0x20004107     0x1  Data  Lc  AlternateCtrl.obj [2]
AC_Wait_Stopped_Timer_Handle
                        0x20004110    0x14  Data  Lc  AlternateCtrl.obj [2]
AC_Wait_Target_Timer_Handle
                        0x20004124    0x14  Data  Lc  AlternateCtrl.obj [2]
AFC_AutoStart_Factory_Cycle_Enable
                        0x200000ee     0x1  Data  Lc  AutostartFactoryCycleMonitor.obj [2]
AFC_Autostart_Factory_Cycle_Procedure
                        0x200049e9     0x1  Data  Lc  AutostartFactoryCycleMonitor.obj [2]
AFC_Num_Reset           0x200000ed     0x1  Data  Lc  AutostartFactoryCycleMonitor.obj [2]
AP12_ACU_Num_Loads_Received
                        0x20004579     0x1  Data  Lc  API012Exp.obj [2]
API003Disc__CommandParser
                        0x0803261d    0xa2  Code  Gb  API003Disc.obj [2]
API003Disc__FeedbackParser
                        0x080326bf     0x2  Code  Gb  API003Disc.obj [2]
API003Disc__Initialize  0x08032615     0x8  Code  Gb  API003Disc.obj [2]
API003Disc__PublishAPIInfo
                        0x080326c1    0x42  Code  Gb  API003Disc.obj [2]
API003_APIS             0x08032750    0x58  Data  Lc  API003Disc.obj [2]
API004Debug__CommandParser
                        0x0802633d    0x72  Code  Gb  API004Debug.obj [2]
API004Debug__SendFbkForFixedArgsFunctions
                        0x080263af    0x36  Code  Gb  API004Debug.obj [2]
API005LOWLEVEL_DEBUG_TABLE
                        0x0802f140    0xc0  Data  Lc  API005LowLevel.obj [2]
API005LowLevel__CommandParser
                        0x0802eba5   0x30c  Code  Gb  API005LowLevel.obj [2]
API005LowLevel__Handler
                        0x0802eec1    0x84  Code  Gb  API005LowLevel.obj [2]
API005LowLevel__Initialize
                        0x0802eb95     0xe  Code  Gb  API005LowLevel.obj [2]
API005_LOADS_OFF        0x0802eeb4     0xc  Data  Lc  API005LowLevel.obj [2]
API005_Publish_Inputs   0x20004f44     0x1  Data  Lc  API005LowLevel.obj [2]
API005_Publish_Loads    0x20004f43     0x1  Data  Lc  API005LowLevel.obj [2]
API005_Timer            0x20004f42     0x1  Data  Lc  API005LowLevel.obj [2]
API005_Timer_Divider    0x20004f41     0x1  Data  Lc  API005LowLevel.obj [2]
API007APP_Rx_Size       0x20004db0     0x2  Data  Lc  API007App.obj [2]
API007APP_Rx_State      0x20004dad     0x1  Data  Lc  API007App.obj [2]
API007App__GetSegmentInfo
                        0x0802c651    0x16  Code  Gb  API007App.obj [2]
API007App__Handler      0x0802c5cb    0x86  Code  Gb  API007App.obj [2]
API007App__Initialize   0x0802c595    0x36  Code  Gb  API007App.obj [2]
API007App__IsDataReady  0x0802c675    0x30  Code  Gb  API007App.obj [2]
API007App__IsWriteEngineFree
                        0x0802c6dd    0x44  Code  Gb  API007App.obj [2]
API007App__PrepareSegment
                        0x0802c667     0xc  Code  Gb  API007App.obj [2]
API007App__ReceivedTransmissionCompleted
                        0x0802c6db     0x2  Code  Gb  API007App.obj [2]
API007App__ServerwriteCompleted
                        0x0802c745     0xa  Code  Gb  API007App.obj [2]
API007App__SetSegmentInfo
                        0x0802c721     0xa  Code  Gb  API007App.obj [2]
API007App__WriteSegmentData
                        0x0802c6a5    0x36  Code  Gb  API007App.obj [2]
API007BULKDATA_SEGMENT_ID
                        0x0802a640     0x1  Data  Lc  API007BulkData.obj [2]
API007BulkDataMgr__AckWriteComplete
                        0x0802a747     0x8  Code  Gb  API007BulkData.obj [2]
API007BulkDataMgr__GetSegmentData
                        0x0802a64f    0x54  Code  Gb  API007BulkData.obj [2]
API007BulkDataMgr__GetSegmentInfo
                        0x0802a647     0x8  Code  Gb  API007BulkData.obj [2]
API007BulkDataMgr__GetSegmentList
                        0x0802a63d     0x4  Code  Gb  API007BulkData.obj [2]
API007BulkDataMgr__GetSegmentListSize
                        0x0802a643     0x4  Code  Gb  API007BulkData.obj [2]
API007BulkDataMgr__Handler
                        0x0802a7ad   0x194  Code  Gb  API007BulkData.obj [2]
API007BulkDataMgr__Initialize
                        0x0802a5e9    0x54  Code  Gb  API007BulkData.obj [2]
API007BulkDataMgr__ReceivedTransmissionCompleted
                        0x0802a79b     0xc  Code  Gb  API007BulkData.obj [2]
API007BulkDataMgr__ReceivedWriteCompleted
                        0x0802a763    0x38  Code  Gb  API007BulkData.obj [2]
API007BulkDataMgr__WriteDetailInfo
                        0x0802a6b3    0x28  Code  Gb  API007BulkData.obj [2]
API007BulkDataMgr__WriteErrorType
                        0x0802a74f    0x14  Code  Gb  API007BulkData.obj [2]
API007BulkDataMgr__WriteSegmentData
                        0x0802a6db    0x6c  Code  Gb  API007BulkData.obj [2]
API007BulkDataMgr__WriteSegmentList
                        0x0802a6a3    0x10  Code  Gb  API007BulkData.obj [2]
API007BulkData_Generic_Timeout
                        0x20003cbc     0x2  Data  Lc  API007BulkData.obj [2]
API007BulkData_Info_List
                        0x20003c98     0x8  Data  Lc  API007BulkData.obj [2]
API007BulkData_Message_Response_Timer
                        0x20003cb8     0x2  Data  Lc  API007BulkData.obj [2]
API007BulkData_Rx_Buffer
                        0x20003cc0    0x44  Data  Lc  API007BulkData.obj [2]
API007BulkData_Rx_Destination
                        0x20003cb6     0x2  Data  Lc  API007BulkData.obj [2]
API007BulkData_Rx_ErrorTypeRecived
                        0x200048fb     0x1  Data  Lc  API007BulkData.obj [2]
API007BulkData_Rx_Index
                        0x20003cb2     0x2  Data  Lc  API007BulkData.obj [2]
API007BulkData_Rx_Segment
                        0x20003cac     0x1  Data  Lc  API007BulkData.obj [2]
API007BulkData_Rx_Segment_IdDetailInfo
                        0x20003ca0     0x8  Data  Lc  API007BulkData.obj [2]
API007BulkData_Rx_Segment_Index
                        0x20003cad     0x1  Data  Lc  API007BulkData.obj [2]
API007BulkData_Rx_Segment_ListRecived
                        0x20003cbe     0x1  Data  Lc  API007BulkData.obj [2]
API007BulkData_Rx_Size  0x20003cb4     0x2  Data  Lc  API007BulkData.obj [2]
API007BulkData_Rx_State
                        0x20003cab     0x1  Data  Lc  API007BulkData.obj [2]
API007BulkData_Tx_Destination
                        0x20003cb0     0x2  Data  Lc  API007BulkData.obj [2]
API007BulkData_Tx_Index
                        0x20003cae     0x2  Data  Lc  API007BulkData.obj [2]
API007BulkData_Tx_Segment
                        0x20003ca9     0x1  Data  Lc  API007BulkData.obj [2]
API007BulkData_Tx_Segment_Index
                        0x20003caa     0x1  Data  Lc  API007BulkData.obj [2]
API007BulkData_Tx_State
                        0x20003ca8     0x1  Data  Lc  API007BulkData.obj [2]
API007BulkData_Write_Operation_Timeout
                        0x20003cba     0x2  Data  Lc  API007BulkData.obj [2]
API007Data__AckParser   0x080278a3     0x2  Code  Gb  API007Data.obj [2]
API007Data__CommandParser
                        0x08027535   0x1f0  Code  Gb  API007Data.obj [2]
API007Data__FeedbackParser
                        0x08027725   0x17e  Code  Gb  API007Data.obj [2]
API007Data__Initialize  0x080274fd    0x36  Code  Gb  API007Data.obj [2]
API007Data__PublishSegmentData
                        0x0802795f    0x46  Code  Gb  API007Data.obj [2]
API007Data__RequestSettingFileDisplacementData
                        0x080278a5    0x44  Code  Gb  API007Data.obj [2]
API007Data__SendError   0x080279bd    0x2c  Code  Gb  API007Data.obj [2]
API007Data__SendTransmissionComplete
                        0x080279a5    0x18  Code  Gb  API007Data.obj [2]
API007Data__WriteRequestCompleted
                        0x080279e9    0x18  Code  Gb  API007Data.obj [2]
API007__RequestGetDataSegment
                        0x08027933    0x2c  Code  Gb  API007Data.obj [2]
API007__RequestInfoSegment
                        0x08027907    0x2c  Code  Gb  API007Data.obj [2]
API007__RequestSegmentsList
                        0x080278e9    0x1e  Code  Gb  API007Data.obj [2]
API009SystemPublishResetStatus
                        0x080274c3    0x38  Code  Lc  API009System.obj [2]
API009System_Go_Sleep_Timer
                        0x20004cc2     0x2  Data  Lc  API009System.obj [2]
API009System_Reset_Mode
                        0x20004cbe     0x1  Data  Lc  API009System.obj [2]
API009System_Reset_Timer
                        0x20004cc0     0x2  Data  Lc  API009System.obj [2]
API009System__AckParser
                        0x0802742f    0x16  Code  Gb  API009System.obj [2]
API009System__CommandParser
                        0x080272cd   0x10e  Code  Gb  API009System.obj [2]
API009System__FeedbackParser
                        0x080273db    0x54  Code  Gb  API009System.obj [2]
API009System__Handler25ms
                        0x08027445    0x56  Code  Gb  API009System.obj [2]
API009System__Initialize
                        0x080272b5    0x18  Code  Gb  API009System.obj [2]
API009System__RequestWakeUpSource
                        0x080274a5    0x1e  Code  Gb  API009System.obj [2]
API010PollVar__CommandParser
                        0x0802d2bd   0x3c6  Code  Gb  API010PollVar.obj [2]
API010PollVar__FastHandler
                        0x0802d2b9     0x2  Code  Gb  API010PollVar.obj [2]
API010PollVar__Initialize
                        0x0802d26d    0x28  Code  Gb  API010PollVar.obj [2]
API010PollVar__SlowHandler
                        0x0802d295    0x18  Code  Gb  API010PollVar.obj [2]
API011AppCtrlPublishCycleNames
                        0x08017709    0xf8  Code  Lc  API011AppCtrl.obj [2]
API011AppCtrlPublishPhaseNames
                        0x08017801    0xa2  Code  Lc  API011AppCtrl.obj [2]
API011AppCtrlPublishStatus
                        0x080176d3    0x36  Code  Lc  API011AppCtrl.obj [2]
API011AppCtrl__CommandParser
                        0x080172d1   0x2cc  Code  Gb  API011AppCtrl.obj [2]
API011AppCtrl__FeedbackParser
                        0x080175a1    0x1c  Code  Gb  API011AppCtrl.obj [2]
API011AppCtrl__Handler  0x080172ab    0x24  Code  Gb  API011AppCtrl.obj [2]
API011AppCtrl__Initialize
                        0x08017289    0x22  Code  Gb  API011AppCtrl.obj [2]
API011AppCtrl__PubMode  0x080175bd    0x38  Code  Gb  API011AppCtrl.obj [2]
API011AppCtrl__PubRegulations
                        0x08017669    0x6a  Code  Gb  API011AppCtrl.obj [2]
API011AppCtrl__PubStatus
                        0x080175f5    0x74  Code  Gb  API011AppCtrl.obj [2]
API011_Status_Ready     0x2000425e     0x1  Data  Lc  API011AppCtrl.obj [2]
API012Exp__AckParser    0x0800920b     0x2  Code  Gb  API012Exp.obj [2]
API012Exp__CommandParser
                        0x0800915b     0x4  Code  Gb  API012Exp.obj [2]
API012Exp__FeedbackParser
                        0x0800915f    0xac  Code  Gb  API012Exp.obj [2]
API012Exp__GetGIByIndex
                        0x0800928f    0x24  Code  Gb  API012Exp.obj [2]
API012Exp__GetGISequenceIDByIndex
                        0x080092b3    0x12  Code  Gb  API012Exp.obj [2]
API012Exp__Handler25ms  0x0800920d    0x82  Code  Gb  API012Exp.obj [2]
API012Exp__Initialize   0x08009139    0x22  Code  Gb  API012Exp.obj [2]
API012Exp__SetTestCycleEngaged
                        0x080092c5     0xc  Code  Gb  API012Exp.obj [2]
API012_Comm_Timeout     0x200045a0     0x2  Data  Lc  API012Exp.obj [2]
API012_Timer            0x20004578     0x1  Data  Lc  API012Exp.obj [2]
API013RemoteFunction__FeedbackParser
                        0x08019a61    0xa2  Code  Gb  API013RemoteFunction.obj [2]
API013RemoteFunction__GetReceivedStatus
                        0x08019b65     0x4  Code  Gb  API013RemoteFunction.obj [2]
API013RemoteFunction__Initialize
                        0x08019a35    0x2c  Code  Gb  API013RemoteFunction.obj [2]
API013RemoteFunction__RegisterForEvents
                        0x08019b69     0xc  Code  Gb  API013RemoteFunction.obj [2]
API013RemoteFunction__SendControl
                        0x08019b05    0x60  Code  Gb  API013RemoteFunction.obj [2]
API013_CLIENT_FUNCTIONS
                        0x08019c1c     0xc  Data  Lc  API013RemoteFunction.obj [2]
API013_Callback         0x08019c28     0x8  Data  Lc  API013RemoteFunction.obj [2]
API013_Callback_Registry
                        0x20004db8     0xc  Data  Lc  API013RemoteFunction.obj [2]
API018Diagnostic__CommandParser
                        0x08013371   0x1c6  Code  Gb  API018Diagnostic.obj [2]
API018Diagnostic__Handler25ms
                        0x080131fb   0x172  Code  Gb  API018Diagnostic.obj [2]
API018Diagnostic__Initialize
                        0x080131ed     0xe  Code  Gb  API018Diagnostic.obj [2]
API018Diagnostic__PublishFaultBasic
                        0x08013541    0xca  Code  Gb  API018Diagnostic.obj [2]
API018_HEADER_PACKET    0x08013740    0x10  Data  Lc  API018Diagnostic.obj [2]
API019ProductInfo__AckParser
                        0x0802e685     0x2  Code  Gb  API019ProductInfo.obj [2]
API019ProductInfo__CommandParser
                        0x0802e3a9   0x2a6  Code  Gb  API019ProductInfo.obj [2]
API019ProductInfo__FeedbackParser
                        0x0802e64f    0x2c  Code  Gb  API019ProductInfo.obj [2]
API019ProductInfo__GetEOLDataReference
                        0x0802e6b1    0x16  Code  Gb  API019ProductInfo.obj [2]
API019ProductInfo__GetServiceDataReference
                        0x0802e6a9     0x4  Code  Gb  API019ProductInfo.obj [2]
API019ProductInfo__Handler25ms
                        0x0802e687    0x22  Code  Gb  API019ProductInfo.obj [2]
API019ProductInfo__Initialize
                        0x0802e351    0x56  Code  Gb  API019ProductInfo.obj [2]
API019_Appliance_Data   0x20000788    0x2c  Data  Lc  API019ProductInfo.obj [2]
API019_BOARD_MAIN_PROJECTS
                        0x20000aec     0x2  Data  Lc  ProductInfo.obj [2]
API019_Board_Data       0x2000075c    0x2c  Data  Lc  API019ProductInfo.obj [2]
API019_EOL_Test_Data    0x200007b4    0x54  Data  Lc  API019ProductInfo.obj [2]
API019_FVT_Data         0x20000808    0x54  Data  Lc  API019ProductInfo.obj [2]
API019_Service_Test_Data
                        0x20000430    0x20  Data  Lc  API019ProductInfo.obj [2]
API019_Timer            0x20004f48     0x4  Data  Gb  API019ProductInfo.obj [2]
API10PublisherBuildFsmVar
                        0x0802d25d    0x10  Code  Lc  API010PollVar.obj [2]
API10PublisherEvent     0x0802d1ff    0x5e  Code  Lc  API010PollVar.obj [2]
API10PublisherExecute   0x0802d1ad    0x52  Code  Lc  API010PollVar.obj [2]
API10PublisherInitialize
                        0x0802d191    0x1c  Code  Lc  API010PollVar.obj [2]
API12_ACU_GI            0x20004580    0x20  Data  Lc  API012Exp.obj [2]
API12_ACU_Loads_Buffer  0x2000457c     0x4  Data  Lc  API012Exp.obj [2]
API12_ACU_Loads_Status_Buffer
                        0x200045a8     0x4  Data  Lc  API012Exp.obj [2]
APIMotorControl__Initialize
                        0x08029d4d    0x78  Code  Gb  APIMotorControl.obj [2]
APIMotorControl__PublishRun
                        0x08029dd1    0x68  Code  Gb  APIMotorControl.obj [2]
APIMotorControl__PublishStop
                        0x08029e39    0x54  Code  Gb  APIMotorControl.obj [2]
APIMotorControl__SlowHandler
                        0x08029dc5     0xc  Code  Gb  APIMotorControl.obj [2]
APPL_BLOCK_1_END {Abs}  0x08038ffb          Data  Gb  command line/config [3]
APPL_BLOCK_1_START {Abs}
                        0x08003000          Data  Gb  command line/config [3]
ATOD_PORT               0x0802c298    0x74  Data  Gb  Atod.obj [2]
AccelerationManager     0x0802f9f1   0x16a  Code  Lc  PwmHiResPilot.obj [2]
AccelerationManager     0x080304c1   0x134  Code  Lc  PwmPilot.obj [2]
ActivateDispenser       0x08031b31    0x14  Code  Lc  RinseAid.obj [2]
ActivateDiverter        0x08028a69    0x8e  Code  Lc  AlternateCtrl.obj [2]
ActivateHeater          0x080117e9    0x1e  Code  Lc  Heat.obj [2]
ActivateOWI             0x0800e66f    0x18  Code  Lc  OWIOneShot.obj [2]
ActivateTask__Initialize
                        0x080096a1    0x64  Code  Gb  ActivateTask.obj [2]
ActivateTask__PauseCompartment
                        0x080098e5    0x26  Code  Gb  ActivateTask.obj [2]
ActivateTask__Process   0x08009705   0x12a  Code  Gb  ActivateTask.obj [2]
ActivateTask__ResetCompartment
                        0x08009831    0x4a  Code  Gb  ActivateTask.obj [2]
ActivateTask__ResumeCompartment
                        0x0800990d    0x26  Code  Gb  ActivateTask.obj [2]
ActivateTask__RunCompartment
                        0x0800987d    0x5c  Code  Gb  ActivateTask.obj [2]
ActivateTask__SubCycleEnded
                        0x0800995d    0x26  Code  Gb  ActivateTask.obj [2]
ActivateTask__SubCycleStarted
                        0x08009935    0x26  Code  Gb  ActivateTask.obj [2]
ActivateValve           0x0800b887    0x22  Code  Lc  NormalFill.obj [2]
ActivateValveNormalEntry
                        0x0800bae7    0x32  Code  Lc  NormalFill.obj [2]
ActivateValveSlowEntry  0x0800bde7    0x32  Code  Lc  NormalFill.obj [2]
Activation_Cycle        0x2000037a     0x1  Data  Lc  StabilityControl.obj [2]
ActiveEntry             0x0802f39d    0x26  Code  Lc  TestMgr.obj [2]
ActivePower_Active_Power
                        0x20004804     0x2  Data  Lc  ActivePower.obj [2]
ActivePower_Active_Power_Accumulator
                        0x2000480c     0x4  Data  Lc  ActivePower.obj [2]
ActivePower_Active_Power_Accumulator_Comp
                        0x20004820     0x4  Data  Lc  ActivePower.obj [2]
ActivePower_Active_Power_Accumulator_Max_NoComp
                        0x2000481c     0x4  Data  Lc  ActivePower.obj [2]
ActivePower_Active_Power_Comp
                        0x20004806     0x2  Data  Lc  ActivePower.obj [2]
ActivePower_Current_Offset
                        0x20004800     0x2  Data  Lc  ActivePower.obj [2]
ActivePower_IIR_Curr_Offset
                        0x20004814     0x4  Data  Lc  ActivePower.obj [2]
ActivePower_IIR_P2P_Voltage
                        0x20004810     0x4  Data  Lc  ActivePower.obj [2]
ActivePower_IIR_Volt_Offset
                        0x20004818     0x4  Data  Lc  ActivePower.obj [2]
ActivePower_P2P_Current
                        0x2000480a     0x2  Data  Lc  ActivePower.obj [2]
ActivePower_P2P_Voltage
                        0x20004808     0x2  Data  Lc  ActivePower.obj [2]
ActivePower_Voltage_Offset
                        0x20004802     0x2  Data  Lc  ActivePower.obj [2]
ActivePower__FastHandler
                        0x08029fb7    0xd0  Code  Gb  ActivePower.obj [2]
ActivePower__GetData    0x0802a087    0x26  Code  Gb  ActivePower.obj [2]
ActivePower__Initialize
                        0x08029f79    0x3e  Code  Gb  ActivePower.obj [2]
AdjustTimeForResumingMainCycle
                        0x08009ba9    0x5a  Code  Lc  Estimator.obj [2]
AdvanceToNextPhase      0x08009c03    0x42  Code  Lc  Estimator.obj [2]
AdvanceToNextStatement  0x08009c45    0x46  Code  Lc  Estimator.obj [2]
AfterFillCheck          0x0800e9f9    0x84  Code  Lc  ClassAFill.obj [2]
AirlockModel__Execute   0x080255b5   0x212  Code  Gb  Airlock_Model.obj [2]
AirlockModel__Initialize
                        0x080257c7    0x3c  Code  Gb  Airlock_Model.obj [2]
AirlockMonitor__Execution
                        0x0801b5ab    0x28  Code  Gb  AirlockMonitor.obj [2]
AirlockMonitor__GetStatus
                        0x0801b5d3     0x6  Code  Gb  AirlockMonitor.obj [2]
AirlockMonitor__Initialize
                        0x0801b529    0x82  Code  Gb  AirlockMonitor.obj [2]
AirlockMonitor__Reset   0x0801b5e9    0x16  Code  Gb  AirlockMonitor.obj [2]
AirlockMonitor__Start   0x0801b5d9     0x8  Code  Gb  AirlockMonitor.obj [2]
AirlockMonitor__Stop    0x0801b5e1     0x8  Code  Gb  AirlockMonitor.obj [2]
Airlock_Enabled         0x200008a9     0x1  Data  Lc  AirlockMonitor.obj [2]
Airlock_Model_ComputeDelta
                        0x0802558d    0x28  Code  Lc  Airlock_Model.obj [2]
Airlock_Model_DW        0x200044d0    0x38  Data  Gb  Airlock_Model.obj [2]
Airlock_Status          0x200008a8     0x1  Data  Lc  AirlockMonitor.obj [2]
All_Timers              0x20003138   0x140  Data  Lc  SystemTimers.obj [2]
AllocateCatchTimer      0x080202ed    0x60  Code  Lc  Timer.obj [2]
Alternate               0x2000008c    0x24  Data  Lc  AlternateCtrl.obj [2]
AlternateControlExecute
                        0x080291e5    0xa4  Code  Lc  AlternateCtrl.obj [2]
AlternateControlInitialize
                        0x08029289    0x1e  Code  Lc  AlternateCtrl.obj [2]
AlternateControlTerminate
                        0x080292ad     0xc  Code  Lc  AlternateCtrl.obj [2]
AlternateCtrl_Ready_To_Exit
                        0x200000ef     0x1  Data  Lc  AlternateCtrl.obj [2]
AlternateCtrl__GetPosition
                        0x08028a2f    0x12  Code  Gb  AlternateCtrl.obj [2]
AlternateCtrl__Initialize
                        0x080287c5    0x2a  Code  Gb  AlternateCtrl.obj [2]
AlternateCtrl__McuReset
                        0x08028a41    0x24  Code  Gb  AlternateCtrl.obj [2]
AlternateCtrl__Process  0x080287ef   0x240  Code  Gb  AlternateCtrl.obj [2]
AlternateLoadEngineDrive
                        0x08028335   0x3ec  Code  Lc  AlternateLoad.obj [2]
AlternateLoadManager    0x08027f81   0x3a6  Code  Lc  AlternateLoad.obj [2]
AlternateLoadSetCommand
                        0x08028725    0x8a  Code  Lc  AlternateLoad.obj [2]
AlternateLoad_Allocation
                        0x20004bc0     0x1  Data  Lc  AlternateLoad.obj [2]
AlternateLoad_Data      0x20004bb0    0x10  Data  Lc  AlternateLoad.obj [2]
AlternateLoad_Search_Home
                        0x2000496b     0x1  Data  Lc  AlternateLoad.obj [2]
AlternateLoad__Allocate
                        0x08027da1    0x12  Code  Gb  AlternateLoad.obj [2]
AlternateLoad__AsyncProcess
                        0x08027f17    0x1a  Code  Gb  AlternateLoad.obj [2]
AlternateLoad__GetAlternateLoadSearchHome
                        0x08027f4b     0x6  Code  Gb  AlternateLoad.obj [2]
AlternateLoad__GetCamNumber
                        0x08027f63     0x6  Code  Gb  AlternateLoad.obj [2]
AlternateLoad__GetDiverterRotateAlwaysFlag
                        0x08027f69     0x6  Code  Gb  AlternateLoad.obj [2]
AlternateLoad__GetProcessed
                        0x08027eff    0x18  Code  Gb  AlternateLoad.obj [2]
AlternateLoad__GetRequested
                        0x08027ee5    0x1a  Code  Gb  AlternateLoad.obj [2]
AlternateLoad__GetRotationTime
                        0x08027f5d     0x6  Code  Gb  AlternateLoad.obj [2]
AlternateLoad__GetRunAfterFaultFlag
                        0x08027f57     0x6  Code  Gb  AlternateLoad.obj [2]
AlternateLoad__GetStatus
                        0x08027f31    0x1a  Code  Gb  AlternateLoad.obj [2]
AlternateLoad__Initialize
                        0x08027d79    0x28  Code  Gb  AlternateLoad.obj [2]
AlternateLoad__InitializeInstance
                        0x08027db3    0x5a  Code  Gb  AlternateLoad.obj [2]
AlternateLoad__Process  0x08027e2f    0xb6  Code  Gb  AlternateLoad.obj [2]
AlternateLoad__Request  0x08027e0d    0x22  Code  Gb  AlternateLoad.obj [2]
AlternateLoad__SetAlternateLoadSearchHome
                        0x08027f51     0x6  Code  Gb  AlternateLoad.obj [2]
Alternate_Control_Cycle_Type
                        0x2000410a     0x1  Data  Lc  AlternateCtrl.obj [2]
Alternate_Control_State
                        0x20004108     0x1  Data  Lc  AlternateCtrl.obj [2]
Alternate_Control_Transitioned
                        0x20004109     0x1  Data  Lc  AlternateCtrl.obj [2]
Always_True             0x080336b5     0x1  Data  Lc  Variable.obj [2]
AnalogInputCheckSample  0x08030a01    0x28  Code  Lc  AnalogLLI.obj [2]
AnalogInputDoRead       0x0803070d   0x2f4  Code  Lc  AnalogLLI.obj [2]
AnalogLLI_Allocation    0x200034e8     0x1  Data  Lc  AnalogLLI.obj [2]
AnalogLLI_Data          0x200034ec   0x120  Data  Lc  AnalogLLI.obj [2]
AnalogLLI__Allocate     0x0803061f    0x12  Code  Gb  AnalogLLI.obj [2]
AnalogLLI__AsynchProcess
                        0x080306c9    0x1a  Code  Gb  AnalogLLI.obj [2]
AnalogLLI__Get          0x080306ad    0x1c  Code  Gb  AnalogLLI.obj [2]
AnalogLLI__Initialize   0x080305fd    0x22  Code  Gb  AnalogLLI.obj [2]
AnalogLLI__InitializeInstance
                        0x08030631    0x7c  Code  Gb  AnalogLLI.obj [2]
AnalogLLI__OneMsPeakToPeakProcess
                        0x080306e3    0x1c  Code  Gb  AnalogLLI.obj [2]
Api010                  0x20002974   0x294  Data  Lc  API010PollVar.obj [2]
Api013                  0x20003d04    0x6c  Data  Lc  API013RemoteFunction.obj [2]
Api018                  0x20004e54     0x8  Data  Lc  API018Diagnostic.obj [2]
Api220_Per_Analog_Data  0x20003970    0xb4  Data  Lc  APIMotorControl.obj [2]
ApplianceMgr__Handler   0x08019cd5    0xce  Code  Gb  ApplianceMgr.obj [2]
ApplianceMgr__Initialize
                        0x08019c31    0xa4  Code  Gb  ApplianceMgr.obj [2]
ApplianceMgr__InitializeStable
                        0x08019da9     0x8  Code  Gb  ApplianceMgr.obj [2]
ApplianceMgr__IsStable  0x08019da3     0x6  Code  Gb  ApplianceMgr.obj [2]
ApplyModificationAction
                        0x08017d4d    0xde  Code  Lc  Modifier.obj [2]
ApplySignalCorrection   0x0801a811    0x1c  Code  Lc  Vwi.obj [2]
Atod__Convert           0x0802c119   0x148  Code  Gb  Atod.obj [2]
Atod__EngineInitialize  0x0802c081    0x98  Code  Gb  Atod.obj [2]
AutostartFactoryCycle__CycleEndEvent
                        0x0800c149    0x24  Code  Gb  AutostartFactoryCycleMonitor.obj [2]
AutostartFactoryCycle__CycleStartEvent
                        0x0800c10f    0x3a  Code  Gb  AutostartFactoryCycleMonitor.obj [2]
AutostartFactoryCycle__Execution
                        0x0800c023    0xec  Code  Gb  AutostartFactoryCycleMonitor.obj [2]
AutostartFactoryCycle__Initialize
                        0x0800bf91    0x92  Code  Gb  AutostartFactoryCycleMonitor.obj [2]
Autostarted             0x200049e8     0x1  Data  Lc  AutostartFactoryCycleMonitor.obj [2]
BDRATE                  0x080267f8    0x20  Data  Lc  Uart.obj [2]
BYTE_CLR_MASK           0x0801791c     0x8  Data  Lc  Utilities.obj [2]
BYTE_SET_MASK           0x08017914     0x8  Data  Lc  Utilities.obj [2]
Backward_Dir_Detect     0x200045e1     0x1  Data  Lc  MclFireAngleCtrl.obj [2]
Bemf_Aligned_Counter    0x20004606     0x2  Data  Lc  MclFireAngleCtrl.obj [2]
Bemf_Not_Changed_Event  0x200045f8     0x2  Data  Lc  MclFireAngleCtrl.obj [2]
Bemf_Volt               0x200047b6     0x2  Data  Lc  MclObserver.obj [2]
Bitfield_0_15_To_ID_Fault_Table
                        0x080237ac    0x10  Data  Lc  FaultStatusMonitor.obj [2]
Bitfield_16_31_To_ID_Fault_Table
                        0x080237bc    0x10  Data  Lc  FaultStatusMonitor.obj [2]
Bitfield_32_47_To_ID_Fault_Table
                        0x080237cc    0x10  Data  Lc  FaultStatusMonitor.obj [2]
Bitfield_48_63_To_ID_Fault_Table
                        0x080237dc    0x10  Data  Lc  FaultStatusMonitor.obj [2]
Bitfield_64_79_To_ID_Fault_Table
                        0x080237ec    0x10  Data  Lc  FaultStatusMonitor.obj [2]
Bleach_Tag_Operating_Temperature
                        0x2000477d     0x1  Data  Gb  CartridgeDetectionMonitor.obj [2]
BoardDebugging__250usHandler
                        0x08029779     0x8  Code  Gb  BoardDebugging.obj [2]
BoardDebugging__25msHandler
                        0x08029781     0x2  Code  Gb  BoardDebugging.obj [2]
BoardDebugging__Initialize
                        0x08029769     0x8  Code  Gb  BoardDebugging.obj [2]
BoardDebugging__PwmHandler
                        0x08029771     0x8  Code  Gb  BoardDebugging.obj [2]
BrownOutExecute         0x08019f37    0x26  Code  Lc  BrownOut.obj [2]
BrownOutInitialize      0x08019f5d     0x8  Code  Lc  BrownOut.obj [2]
BrownOut__Initialize    0x08019e01    0x26  Code  Gb  BrownOut.obj [2]
BrownOut__IsDetected    0x08019e51     0x6  Code  Gb  BrownOut.obj [2]
BrownOut__Monitor       0x08019e27    0x2a  Code  Gb  BrownOut.obj [2]
Brown_Out_Detected      0x20004f4c     0x1  Data  Lc  BrownOut.obj [2]
Brown_Out_Recover_Filter
                        0x20004f4e     0x2  Data  Lc  BrownOut.obj [2]
Brown_Out_State         0x200049af     0x1  Data  Lc  BrownOut.obj [2]
BuildAllGIConfigurationMessage
                        0x0802f0f9    0x42  Code  Lc  API005LowLevel.obj [2]
BuildAllLLIConfigurationMessage
                        0x0802f0c5    0x34  Code  Lc  API005LowLevel.obj [2]
BuildAllLoadConfigurationMessage
                        0x0802f091    0x34  Code  Lc  API005LowLevel.obj [2]
BuildGIDataMessage      0x0802f06f    0x22  Code  Lc  API005LowLevel.obj [2]
BuildLLIDataMessage     0x0802f033    0x3c  Code  Lc  API005LowLevel.obj [2]
BuildLoadDataMessage    0x0802efe9    0x4a  Code  Lc  API005LowLevel.obj [2]
BuildStream             0x0802d689    0xe4  Code  Lc  API010PollVar.obj [2]
BulkDispencerLoad       0x0800a974     0x4  Data  Lc  CartridgeDetectionMonitor.obj [2]
Bulk_Dispencer_ML_Dispenced
                        0x20004ce8     0x4  Data  Lc  CartridgeDetectionMonitor.obj [2]
Bulk_Dispencer_ML_Remaining
                        0x200000d8     0x8  Data  Lc  CartridgeDetectionMonitor.obj [2]
Bulk_Dispencer_Previous_State
                        0x20004ce4     0x4  Data  Lc  CartridgeDetectionMonitor.obj [2]
Bulk_Dispencer_Release_Time
                        0x20004770     0x4  Data  Lc  CartridgeDetectionMonitor.obj [2]
Bulk_Dispencer_State    0x20004ce0     0x4  Data  Lc  CartridgeDetectionMonitor.obj [2]
Bulk_Dispencer_Timer_ON
                        0x200000d4     0x4  Data  Lc  CartridgeDetectionMonitor.obj [2]
Bus_Configuration_Ptr   0x200045a4     0x4  Data  Lc  API012Exp.obj [2]
CDM_Cartridge_Data      0x200000b0    0x24  Data  Lc  CartridgeDetectionMonitor.obj [2]
CLASS_B_SIGNATURE       0x0802eb74    0x20  Data  Lc  SRSignature.obj [2]
CLAcceptable_Inlet_Threshold
                        0x20004ab4     0x2  Data  Lc  NormalFill.obj [2]
CLSlow_Inlet_Threshold  0x20004ab2     0x2  Data  Lc  NormalFill.obj [2]
CLValve_Closed_Threshold
                        0x20004ab0     0x2  Data  Lc  NormalFill.obj [2]
CLiters_Max             0x20004aae     0x2  Data  Lc  NormalFill.obj [2]
CLiters_Offset          0x20004aac     0x2  Data  Lc  NormalFill.obj [2]
CLiters_Requested       0x20004aaa     0x2  Data  Lc  NormalFill.obj [2]
COMMUNICATION_MONITOR_NODE_LIST
                        0x08023d58     0x2  Data  Lc  CommunicationMonitor.obj [2]
CRC8_TABLE              0x08015a74   0x100  Data  Lc  Crc8.obj [2]
CSTACK$$Base            0x20023080           --   Gb  - Linker created -
CSTACK$$Limit           0x20023480           --   Gb  - Linker created -
CalculateHash           0x0802dfc9    0x4c  Code  Lc  LoadsControl.obj [2]
CalculateLoStatementIndex
                        0x08009c8b    0x42  Code  Lc  Estimator.obj [2]
CalculateSectionCRC     0x08012eef    0x2a  Code  Lc  SettingFile.obj [2]
CalculateVwiHFAverage   0x08012499    0x92  Code  Lc  SensedDrainProcess.obj [2]
Calibrate               0x0801a8c7    0x50  Code  Lc  Vwi.obj [2]
CalibrationCounterSinceLastSuccess
                        0x2000041c     0x1  Data  Lc  OWIMonitor.obj [2]
Callback_Control_Fault  0x08005728     0x8  Data  Lc  Fault.obj [2]
Callback_Control_Fault_Registry
                        0x20004cec    0x10  Data  Lc  Fault.obj [2]
Callback_Control_Pre_Fault
                        0x08005730     0x8  Data  Lc  Fault.obj [2]
Callback_Control_Pre_Fault_Registry
                        0x20004a30    0x18  Data  Lc  Fault.obj [2]
Callback__Initialize    0x08012b79    0x28  Code  Gb  Callback.obj [2]
Callback__Notify        0x08012c09    0x40  Code  Gb  Callback.obj [2]
Callback__Register      0x08012ba1    0x68  Code  Gb  Callback.obj [2]
CancellingEntry         0x080041b1     0x2  Code  Lc  Supervisor.obj [2]
CancellingExit          0x080041b3     0x2  Code  Lc  Supervisor.obj [2]
CartridgeDetectionMonitorEnabled
                        0x20004778     0x1  Data  Lc  CartridgeDetectionMonitor.obj [2]
CartridgeDetectionMonitor_API013ApplReceivedStatus
                        0x0800a4f1   0x102  Code  Lc  CartridgeDetectionMonitor.obj [2]
CartridgeDetectionMonitor__Execution
                        0x0800a3fd    0x22  Code  Gb  CartridgeDetectionMonitor.obj [2]
CartridgeDetectionMonitor__GetCartridgeDoorStatus
                        0x0800a4b5     0xe  Code  Gb  CartridgeDetectionMonitor.obj [2]
CartridgeDetectionMonitor__GetFstTagStatusReadDone
                        0x0800a4af     0x6  Code  Gb  CartridgeDetectionMonitor.obj [2]
CartridgeDetectionMonitor__GetLocalMLRemaining
                        0x0800a4c3    0x22  Code  Gb  CartridgeDetectionMonitor.obj [2]
CartridgeDetectionMonitor__GetTagData
                        0x0800a45d    0x2a  Code  Gb  CartridgeDetectionMonitor.obj [2]
CartridgeDetectionMonitor__GetTagOperatingTemperature
                        0x0800a487    0x22  Code  Gb  CartridgeDetectionMonitor.obj [2]
CartridgeDetectionMonitor__GetTagSerialNumber
                        0x0800a4a9     0x6  Code  Gb  CartridgeDetectionMonitor.obj [2]
CartridgeDetectionMonitor__Initialize
                        0x0800a35d    0xa0  Code  Gb  CartridgeDetectionMonitor.obj [2]
CartridgeDetectionMonitor__WriteTagMLRemaining
                        0x0800a41f    0x3e  Code  Gb  CartridgeDetectionMonitor.obj [2]
Cartridge_Door_Input_Gi_Index
                        0x2000477a     0x1  Data  Lc  CartridgeDetectionMonitor.obj [2]
Cartridge_Door_Status   0x2000477b     0x1  Data  Lc  CartridgeDetectionMonitor.obj [2]
Cartridge_HMI_Data      0x20004774     0x4  Data  Gb  CartridgeDetectionMonitor.obj [2]
Cartridge_Paramters_Ptr
                        0x20004784     0x4  Data  Lc  CartridgeDetectionMonitor.obj [2]
Cartridge_Serial_NNumber
                        0x200000e0     0x4  Data  Lc  CartridgeDetectionMonitor.obj [2]
Cartridge_Switch1_Input_Gi_Index
                        0x20004779     0x1  Data  Lc  CartridgeDetectionMonitor.obj [2]
Cartridge_Switch1_Status
                        0x200049c9     0x1  Data  Lc  CartridgeDetectionMonitor.obj [2]
ChargePumpPilot_Allocation
                        0x20004f28     0x1  Data  Lc  ChargePumpPilot.obj [2]
ChargePumpPilot_Data    0x20004f24     0x4  Data  Lc  ChargePumpPilot.obj [2]
ChargePumpPilot__Allocate
                        0x08032ee7    0x12  Code  Gb  ChargePumpPilot.obj [2]
ChargePumpPilot__GetProcessed
                        0x08032f7f    0x14  Code  Gb  ChargePumpPilot.obj [2]
ChargePumpPilot__GetRequested
                        0x08032f69    0x16  Code  Gb  ChargePumpPilot.obj [2]
ChargePumpPilot__Handler1ms
                        0x08032f93    0x72  Code  Gb  ChargePumpPilot.obj [2]
ChargePumpPilot__Initialize
                        0x08032ed5    0x12  Code  Gb  ChargePumpPilot.obj [2]
ChargePumpPilot__InitializeInstance
                        0x08032ef9    0x38  Code  Gb  ChargePumpPilot.obj [2]
ChargePumpPilot__Process
                        0x08032f53    0x16  Code  Gb  ChargePumpPilot.obj [2]
ChargePumpPilot__Request
                        0x08032f31    0x22  Code  Gb  ChargePumpPilot.obj [2]
CheckAllocationOfAllStacks
                        0x080151e5    0xa6  Code  Lc  SRMain.obj [2]
CheckCartridge          0x08030e1d    0x56  Code  Lc  TridgeDetergent.obj [2]
CheckClosedFailureRemoval
                        0x0801cc4d    0x32  Code  Lc  PilotRelayStuckClosedMonitor.obj [2]
CheckConditionToRunCycle
                        0x0802465b    0x5c  Code  Lc  VoltageRangeMonitor.obj [2]
CheckConditions         0x0800b8a9    0xe2  Code  Lc  NormalFill.obj [2]
CheckDataDue            0x0802d8f1    0x48  Code  Lc  API010PollVar.obj [2]
CheckDeltaDo            0x08010d51    0xd6  Code  Lc  HeaterShadowing.obj [2]
CheckDeltaEntry         0x08010d35    0x18  Code  Lc  HeaterShadowing.obj [2]
CheckFailureRemoval     0x0800fdf1   0x252  Code  Lc  TriacCurrentMonitor.obj [2]
CheckFailureRemoval     0x08024299    0x38  Code  Lc  TriacShortedDrainFaultMonitor.obj [2]
CheckForBrownout        0x08007995    0x12  Code  Lc  NVData.obj [2]
CheckForClosedFailure   0x0801cc2d    0x20  Code  Lc  PilotRelayStuckClosedMonitor.obj [2]
CheckForCycleEnd        0x0802f38d    0x10  Code  Lc  TestMgr.obj [2]
CheckForFailure         0x0800f72b    0xd8  Code  Lc  TriacCurrentMonitor.obj [2]
CheckForFailure         0x080242d1    0x28  Code  Lc  TriacShortedDrainFaultMonitor.obj [2]
CheckForFailures        0x0801c625    0x20  Code  Lc  HeaterLineRelayOpenMonitor.obj [2]
CheckForFailures        0x0801c461    0x28  Code  Lc  HeaterNeutralRelayOpenMonitor.obj [2]
CheckForFailures        0x0801ca91    0x20  Code  Lc  HeaterOpenAndLineRelayClosedMonitor.obj [2]
CheckForFailures        0x0801c909    0x28  Code  Lc  HeaterOpenMonitor.obj [2]
CheckForLeakageFailure  0x0801c78d    0x28  Code  Lc  HeaterLeakageMonitor.obj [2]
CheckForNewSample       0x0800cb2d    0x9a  Code  Lc  OwiVroRead.obj [2]
CheckForNoDebounce      0x0800542b    0x46  Code  Lc  Fault.obj [2]
CheckForOffCondition    0x0802e09d    0x14  Code  Lc  LoadsControl.obj [2]
CheckForOnCondition     0x0802e0b1    0x1c  Code  Lc  LoadsControl.obj [2]
CheckForOpenFailure     0x0801cd8d    0x20  Code  Lc  PilotRelayStuckOpenMonitor.obj [2]
CheckForOpenFault       0x0801c1e5    0x28  Code  Lc  ThermistorOpenMonitor.obj [2]
CheckForPower           0x080079ad    0x14  Code  Lc  NVData.obj [2]
CheckForPreFaultSubCycle
                        0x08013845    0x1c  Code  Lc  SubCycle.obj [2]
CheckForPulseDone       0x0802e0cd    0x56  Code  Lc  LoadsControl.obj [2]
CheckForRequest         0x0802f2c5    0xc8  Code  Lc  TestMgr.obj [2]
CheckForShortedFault    0x0801c315    0x30  Code  Lc  ThermistorShortedMonitor.obj [2]
CheckForSubCycle        0x0800612d   0x102  Code  Lc  Interpreter.obj [2]
CheckForTimeout         0x0800e48f    0x1e  Code  Lc  Maintain.obj [2]
CheckHeaterOpenAndRelayLClosedRemoval
                        0x0801cab1    0x70  Code  Lc  HeaterOpenAndLineRelayClosedMonitor.obj [2]
CheckHeaterOpenRemoval  0x0801c931    0x52  Code  Lc  HeaterOpenMonitor.obj [2]
CheckHysteresisConditions
                        0x0802dbf7    0x2c  Code  Lc  LoadsControl.obj [2]
CheckIfDisabled         0x0800e4ad    0x1e  Code  Lc  Maintain.obj [2]
CheckLeakageRemoval     0x0801c7b5    0x48  Code  Lc  HeaterLeakageMonitor.obj [2]
CheckLoadHandlers       0x0801955d    0x3a  Code  Lc  Hbl.obj [2]
CheckMetadataDue        0x0802d939    0x12  Code  Lc  API010PollVar.obj [2]
CheckNewProfile         0x08028eed   0x140  Code  Gb  AlternateCtrl.obj [2]
CheckOpenFailureRemoval
                        0x0801cdad    0x32  Code  Lc  PilotRelayStuckOpenMonitor.obj [2]
CheckOpenRemoval        0x0801c20d    0x42  Code  Lc  ThermistorOpenMonitor.obj [2]
CheckProcessCall        0x08028afd    0x4a  Code  Lc  AlternateCtrl.obj [2]
CheckProcessCall        0x08011861    0x6e  Code  Lc  Heat.obj [2]
CheckProcessCall        0x0800b98b    0x88  Code  Lc  NormalFill.obj [2]
CheckPulseDuration      0x0802908f    0x7a  Code  Lc  AlternateCtrl.obj [2]
CheckPulseDuration::tick
                        0x2000410b     0x1  Data  Lc  AlternateCtrl.obj [2]
CheckRegulations        0x08003e7d   0x158  Code  Lc  Supervisor.obj [2]
CheckRelayLOpenRemoval  0x0801c645    0x40  Code  Lc  HeaterLineRelayOpenMonitor.obj [2]
CheckRelayNOpenRemoval  0x0801c489    0x86  Code  Lc  HeaterNeutralRelayOpenMonitor.obj [2]
CheckRevealNodeStatus   0x08023c99    0x24  Code  Lc  CommunicationMonitor.obj [2]
CheckSRTaskError        0x080160bd    0x20  Code  Lc  SRTaskMonitor.obj [2]
CheckShortedRemoval     0x0801c345    0x4a  Code  Lc  ThermistorShortedMonitor.obj [2]
CheckSlowConditions     0x0800bb25    0x54  Code  Lc  NormalFill.obj [2]
CheckStatus             0x0802902d     0x2  Code  Lc  AlternateCtrl.obj [2]
CheckStatus             0x08013a91     0x2  Code  Lc  PumpControl.obj [2]
CheckTagStatusRead      0x08030de5    0x26  Code  Lc  TridgeDetergent.obj [2]
CheckTargetPosition     0x08028b4d    0x9a  Code  Lc  AlternateCtrl.obj [2]
CheckTargetSpeed        0x0802910d    0x76  Code  Lc  AlternateCtrl.obj [2]
CheckTimedConditions    0x0800bcc1    0xc8  Code  Lc  NormalFill.obj [2]
CheckTimeout            0x08011905    0x66  Code  Lc  Heat.obj [2]
CheckTimeout            0x0800e687    0x16  Code  Lc  OWIOneShot.obj [2]
CheckTimeout::tick      0x20004dca     0x1  Data  Lc  Heat.obj [2]
CheckVwiStable          0x08025ae9    0x12  Code  Lc  PartialDrainModel.obj [2]
CheckWaitTargetTimer    0x080291ab    0x28  Code  Lc  AlternateCtrl.obj [2]
CheckWater              0x0800bb85   0x12e  Code  Lc  NormalFill.obj [2]
Check_RinsAid_State     0x2000042b     0x1  Data  Lc  RinseAidMonitor.obj [2]
CheckbothTarget         0x08011807    0x5a  Code  Lc  Heat.obj [2]
ChecksumOK              0x08012c51    0x30  Code  Lc  Callback.obj [2]
ChecktargetT1           0x080118cf    0x2e  Code  Lc  Heat.obj [2]
ClassAFillBuildFsmVar   0x0800e8df    0x10  Code  Lc  ClassAFill.obj [2]
ClassAFillFsmEvent      0x0800e847    0x98  Code  Lc  ClassAFill.obj [2]
ClassAFillFsmExecute    0x0800e7fd    0x4a  Code  Lc  ClassAFill.obj [2]
ClassAFillFsmInitialize
                        0x0800e7d5    0x28  Code  Lc  ClassAFill.obj [2]
ClassAFill__DisableFlowRateCalibration
                        0x0800e99f     0x8  Code  Gb  ClassAFill.obj [2]
ClassAFill__Initialize  0x0800e8ef    0x38  Code  Gb  ClassAFill.obj [2]
ClassAFill__Manager     0x0800e927    0x4e  Code  Gb  ClassAFill.obj [2]
ClassAFill__SetH2OPauseExecuted
                        0x0800e997     0x8  Code  Gb  ClassAFill.obj [2]
ClassAFill__SetSubcycleExecuted
                        0x0800e975    0x22  Code  Gb  ClassAFill.obj [2]
Class_A_Fill_Bitmap     0x20000170     0x1  Data  Gb  Fill.obj [2]
Class_A_Fill_Project    0x20004cd6     0x1  Data  Lc  Fill.obj [2]
Class_A_Fill_State      0x200000ec     0x1  Data  Lc  ClassAFill.obj [2]
CleanPreFault           0x0801cf5f    0x44  Code  Lc  SensedDrainModel.obj [2]
Clear_Interrupt_Data    0x20004d5c     0x1  Data  Lc  TimingAnalysis.obj [2]
Clear_Stats_Data        0x20004d4f     0x1  Data  Lc  SRClockMonitor.obj [2]
Clear_Task_Data         0x20003d70     0x8  Data  Lc  TimingAnalysis.obj [2]
Cliters_Max             0x2000037e     0x2  Data  Lc  StabilityControl.obj [2]
Common_Parameters_Ptr   0x20000380     0x4  Data  Lc  StabilityControl.obj [2]
CommunicationMonitorExecute
                        0x08023ce1    0x38  Code  Lc  CommunicationMonitor.obj [2]
CommunicationMonitorInitialize
                        0x08023d19    0x10  Code  Lc  CommunicationMonitor.obj [2]
CommunicationMonitor_Data
                        0x20004e64     0x4  Data  Lc  CommunicationMonitor.obj [2]
CommunicationMonitor_HasNodeInFault
                        0x20004e6a     0x2  Data  Lc  CommunicationMonitor.obj [2]
CommunicationMonitor_Timer_Tick
                        0x20004e69     0x1  Data  Lc  CommunicationMonitor.obj [2]
CommunicationMonitor__Execute
                        0x08023c4b    0x2a  Code  Gb  CommunicationMonitor.obj [2]
CommunicationMonitor__Initialize
                        0x08023c1d    0x2e  Code  Gb  CommunicationMonitor.obj [2]
Communication_Monitor_Transitioned
                        0x20004e68     0x1  Data  Lc  CommunicationMonitor.obj [2]
CompareLoadsAndRequests
                        0x0801bf3f    0x46  Code  Lc  TriacVoltageMonitor.obj [2]
Compensation            0x200034e0     0x8  Data  Lc  AnalogLLI.obj [2]
Condition_Detected      0x20004c9d     0x1  Data  Lc  WashMotorFaultMonitor.obj [2]
Condition__Evaluate     0x0801b9c5    0x2e  Code  Gb  Condition.obj [2]
ConfigureEndCycle       0x08004105    0x64  Code  Lc  Supervisor.obj [2]
ConfirmPumpStopped      0x08025b5d    0x12  Code  Lc  PartialDrainModel.obj [2]
ConsistencyDoUpdate     0x080195bd    0x3a  Code  Lc  Hbl.obj [2]
ConsistencyEval         0x08019621   0x23c  Code  Lc  Hbl.obj [2]
ConsistencyGetFeedbackValue
                        0x08019865    0x42  Code  Lc  Hbl.obj [2]
ConsistencyInitialize   0x08019597    0x22  Code  Lc  Hbl.obj [2]
Control                 0x2000410c     0x4  Data  Lc  AlternateCtrl.obj [2]
Control                 0x20004dcc     0x4  Data  Lc  Heat.obj [2]
Control                 0x20004938     0x4  Data  Lc  OWIOneShot.obj [2]
ConvertClientFunctionIndexToServerId
                        0x08019b75    0x10  Code  Lc  API013RemoteFunction.obj [2]
ConvertGI_Allocation    0x20004a00     0x1  Data  Lc  ConvertGI.obj [2]
ConvertGI_LLI_Sequence  0x20004a04    0x14  Data  Lc  ConvertGI.obj [2]
ConvertGI__Allocate     0x08033201    0x12  Code  Gb  ConvertGI.obj [2]
ConvertGI__AsynchProcess
                        0x08033233    0x24  Code  Gb  ConvertGI.obj [2]
ConvertGI__Get          0x0803322f     0x4  Code  Gb  ConvertGI.obj [2]
ConvertGI__GetConverted
                        0x0803325d    0x3e  Code  Gb  ConvertGI.obj [2]
ConvertGI__Initialize   0x080331ed    0x14  Code  Gb  ConvertGI.obj [2]
ConvertGI__InitializeInstance
                        0x08033213    0x1c  Code  Gb  ConvertGI.obj [2]
ConvertServerIdToClientIndex
                        0x08019b85    0x2c  Code  Lc  API013RemoteFunction.obj [2]
ConvertSignExtension    0x08021751    0x22  Code  Lc  Convert.obj [2]
ConvertToSint32         0x08008d55   0x12c  Code  Lc  Variable.obj [2]
Convert__GetValue       0x08021389   0x3c8  Code  Gb  Convert.obj [2]
Convert__Process        0x08021379     0xc  Code  Gb  Convert.obj [2]
CountNumOfLoadWords     0x0802dc23    0x32  Code  Lc  LoadsControl.obj [2]
CountOutputsOn          0x0801be87    0x5a  Code  Lc  TriacVoltageMonitor.obj [2]
CountPulses             0x0800f27d    0x5a  Code  Lc  FillValveStuckOn.obj [2]
Crc16__ByteProcess      0x080156f9    0x2a  Code  Gb  Crc16.obj [2]
Crc16__ConstRangeProcess
                        0x08015745    0x22  Code  Gb  Crc16.obj [2]
Crc16__RangeProcess     0x08015723    0x22  Code  Gb  Crc16.obj [2]
Crc8                    0x08015a49    0x22  Code  Gb  Crc8.obj [2]
Crc8__ProcessByte       0x08015a6d     0x8  Code  Gb  Crc8.obj [2]
Crc_Calc_16_Prev        0x20004e10     0x2  Data  Lc  Status.obj [2]
CrossLoads__Initialize  0x080221d9    0xea  Code  Gb  CrossLoads.obj [2]
CrossLoads__Process     0x080222c5    0xd4  Code  Gb  CrossLoads.obj [2]
CrossloadHandlers       0x080223a0    0x10  Data  Lc  CrossLoads.obj [2]
Crossload_Cfg           0x20004a18    0x18  Data  Lc  CrossLoads.obj [2]
Crossload_Crc           0x200048c8     0x4  Data  Lc  CrossLoads.obj [2]
Crossload_Data          0x200048b0    0x14  Data  Lc  CrossLoads.obj [2]
Crossloads_Num          0x200048c4     0x1  Data  Lc  CrossLoads.obj [2]
Curr_Channel            0x20004d24     0x8  Data  Lc  MclInputProc.obj [2]
CurrentSenseFaultMonitorExecute
                        0x080100bd    0x22  Code  Lc  TriacCurrentMonitor.obj [2]
CurrentSenseFaultMonitorInitialize
                        0x080100e5     0xe  Code  Lc  TriacCurrentMonitor.obj [2]
CurrentSenseStatusPending
                        0x20004236     0x1  Data  Lc  TriacCurrentMonitor.obj [2]
Current_Compartment     0x20004f40     0x1  Data  Lc  Supervisor.obj [2]
Current_SRCheck         0x20004e04     0x1  Data  Lc  SRProductMgr.obj [2]
Current_Sense_Crossload_Cfg
                        0x20004950    0x18  Data  Lc  TriacCurrentMonitor.obj [2]
Current_Sense_Crossloads_Num
                        0x20004968     0x1  Data  Lc  TriacCurrentMonitor.obj [2]
Current_Sense_Delay_Load
                        0x20004969     0x1  Data  Lc  TriacCurrentMonitor.obj [2]
Current_Sense_Delay_Needed
                        0x20004239     0x1  Data  Lc  TriacCurrentMonitor.obj [2]
Current_Sense_Diagnostic
                        0x2000423c     0xc  Data  Lc  TriacCurrentMonitor.obj [2]
Current_Sense_Fault_Monitor_State
                        0x20004f9e     0x1  Data  Lc  TriacCurrentMonitor.obj [2]
Current_Sense_Pump      0x2000425c     0x2  Data  Lc  TriacCurrentMonitor.obj [2]
Current_Sense_Triac_Present
                        0x2000496a     0x1  Data  Lc  TriacCurrentMonitor.obj [2]
CycleCounterSinceLastCalibration
                        0x2000041e     0x2  Data  Lc  OWIMonitor.obj [2]
CycleResume__CheckStepAdvance
                        0x080109f9    0x34  Code  Gb  CycleResume.obj [2]
CycleResume__StartSubcycle
                        0x08010965    0x90  Code  Gb  CycleResume.obj [2]
Cycles_Index            0x20004eec     0x1  Data  Lc  Statistics.obj [2]
DATAFLASH_SIZE {Abs}    0x00001800          Data  Gb  command line/config [3]
DATA_TYPE_MAP           0x080230c0     0x4  Data  Lc  HblCommon.obj [2]
DATA_TYPE_SIZE          0x08033684    0x10  Data  Lc  Convert.obj [2]
DCCheckFailureRemoval   0x08010619    0x92  Code  Lc  DCLoadCurrentMonitor.obj [2]
DCCheckForFailure       0x080106ab    0x44  Code  Lc  DCLoadCurrentMonitor.obj [2]
DCLoadCheckIfInRange    0x0801059f    0x76  Code  Lc  DCLoadCurrentMonitor.obj [2]
DCLoadCurrentHandler    0x080103db    0xbe  Code  Lc  DCLoadCurrentMonitor.obj [2]
DCLoadCurrentInitializeModule
                        0x080106ef   0x102  Code  Lc  DCLoadCurrentMonitor.obj [2]
DCLoadCurrentMonitorExecute
                        0x0801082f    0x22  Code  Lc  DCLoadCurrentMonitor.obj [2]
DCLoadCurrentMonitorInitialize
                        0x08010851     0xe  Code  Lc  DCLoadCurrentMonitor.obj [2]
DCLoadCurrentMonitor__Execution
                        0x080103a5    0x10  Code  Gb  DCLoadCurrentMonitor.obj [2]
DCLoadCurrentMonitor__ExitFault
                        0x080103b5     0x8  Code  Gb  DCLoadCurrentMonitor.obj [2]
DCLoadCurrentMonitor__Initialize
                        0x0801038d    0x18  Code  Gb  DCLoadCurrentMonitor.obj [2]
DCLoadCurrentResetFailureDetection
                        0x080107f1    0x1c  Code  Lc  DCLoadCurrentMonitor.obj [2]
DCLoadCurrentUpdateRange
                        0x08010499    0xf8  Code  Lc  DCLoadCurrentMonitor.obj [2]
DCLoadDiagnosticGetStatus
                        0x080103bd    0x1e  Code  Lc  DCLoadCurrentMonitor.obj [2]
DCLoadSetRef            0x08010591     0xe  Code  Lc  DCLoadCurrentMonitor.obj [2]
DCLoadStatusPending     0x20004832     0x1  Data  Lc  DCLoadCurrentMonitor.obj [2]
DCLoad_Debounce_Timer   0x20004834     0x1  Data  Lc  DCLoadCurrentMonitor.obj [2]
DCLoad_Ref_Timer        0x20004833     0x1  Data  Lc  DCLoadCurrentMonitor.obj [2]
DC_Fan_Fault_Params     0x2000483c     0x4  Data  Lc  DCLoadCurrentMonitor.obj [2]
DC_Load_Current         0x20004844     0x2  Data  Lc  DCLoadCurrentMonitor.obj [2]
DC_Load_Current_Monitor_State
                        0x200049e7     0x1  Data  Lc  DCLoadCurrentMonitor.obj [2]
DC_Load_DC_Fan_Status   0x2000482f     0x1  Data  Lc  DCLoadCurrentMonitor.obj [2]
DC_Load_DOS_Status      0x20004831     0x1  Data  Lc  DCLoadCurrentMonitor.obj [2]
DC_Load_Diagnostic      0x20004824     0x8  Data  Lc  DCLoadCurrentMonitor.obj [2]
DC_Load_LITT_Status     0x2000482d     0x1  Data  Lc  DCLoadCurrentMonitor.obj [2]
DEBOUNCE_METHODS        0x0800513c    0x20  Data  Lc  Fault.obj [2]
DISABLED_TASK           0x20004bd4    0x10  Data  Lc  ActivateTask.obj [2]
DLFM_Diverter_Leak_Happened
                        0x200049e5     0x1  Data  Gb  DiverterLeakFaultMonitor.obj [2]
DLFM_Diverter_Leak_Range_Counter
                        0x200049e6     0x1  Data  Gb  DiverterLeakFaultMonitor.obj [2]
DOS_Data                0x20004e7c     0x8  Data  Lc  DoorOpeningSystemMonitor.obj [2]
DOS_Fault_Params        0x20004840     0x4  Data  Lc  DCLoadCurrentMonitor.obj [2]
DOS_NV_Data             0x20000118     0x4  Data  Lc  DoorOpeningSystemMonitor.obj [2]
DOS_Push_Data           0x20004e84     0x8  Data  Lc  DoorOpeningSystemPush.obj [2]
DataFlash_Appliance_Filler
                        0x2000026c     0x4  Data  Lc  NVData.obj [2]
DataFlash_Statistics_Filler
                        0x20000450     0x4  Data  Lc  NVData.obj [2]
DataFlash_Status        0x20004baf     0x1  Data  Lc  DataFlash.obj [2]
DataFlash__FormatPage   0x08015b9d    0x1a  Code  Gb  DataFlash.obj [2]
DataFlash__Initialize   0x08015b75     0x8  Code  Gb  DataFlash.obj [2]
DataFlash__Read         0x08015b89    0x14  Code  Gb  DataFlash.obj [2]
DataFlash__Write        0x08015b7d     0xc  Code  Gb  DataFlash.obj [2]
DeAllocateCatchTimer    0x0802034d    0x3e  Code  Lc  Timer.obj [2]
DebounceError           0x08005471     0xa  Code  Lc  Fault.obj [2]
DebounceErrorRemoval    0x0800547b    0x2a  Code  Lc  Fault.obj [2]
DebounceWaterState      0x0801a831    0x54  Code  Lc  Vwi.obj [2]
Debug__Func00           0x08033695     0x2  Code  Gb  Debug.obj [2]
Debug__Func01           0x08033697     0x2  Code  Gb  Debug.obj [2]
Debug__Func02           0x08033699     0x2  Code  Gb  Debug.obj [2]
Debug__Func03           0x0803369b     0x2  Code  Gb  Debug.obj [2]
Debug__Func04           0x0803369d     0x2  Code  Gb  Debug.obj [2]
Debug__Func05           0x0803369f     0x2  Code  Gb  Debug.obj [2]
Debug__Func06           0x080336a1     0x2  Code  Gb  Debug.obj [2]
Debug__Func07           0x080336a3     0x2  Code  Gb  Debug.obj [2]
Deciseconds_Since_Power_Up
                        0x20004e5e     0x2  Data  Lc  ApplianceMgr.obj [2]
DecrementCounter        0x0800e4cb    0x1c  Code  Lc  Maintain.obj [2]
DecrementLedTimer       0x080247f5    0x1a  Code  Lc  StatusLed.obj [2]
DecrementMicroPowerUpTimer
                        0x0802480f    0x12  Code  Lc  StatusLed.obj [2]
DefaultPin_Acu_Ptr      0x20004e6c     0x8  Data  Lc  DefaultPin.obj [2]
DefaultPin__Handler     0x08033131    0x14  Code  Gb  DefaultPin.obj [2]
DefaultPin__Initialize  0x08033121    0x10  Code  Gb  DefaultPin.obj [2]
DefineProfileToRun      0x08024821    0x9c  Code  Lc  StatusLed.obj [2]
DefineSystemState       0x08004169    0x18  Code  Lc  Supervisor.obj [2]
DelayDo                 0x080041b5   0x104  Code  Lc  Supervisor.obj [2]
DelayEntry              0x080042b9    0x68  Code  Lc  Supervisor.obj [2]
DelayPauseDo            0x08004325    0x66  Code  Lc  Supervisor.obj [2]
DelayPauseEntry         0x0800438b    0x4a  Code  Lc  Supervisor.obj [2]
DelayPauseExit          0x080043d9     0xc  Code  Lc  Supervisor.obj [2]
DelayTimeState          0x2000426a     0x1  Data  Lc  OWICalibrationProcess.obj [2]
Delta_Array             0x20004374    0x30  Data  Lc  DishAuxVar.obj [2]
DetectBrownOutEvent     0x08019e57    0x5c  Code  Lc  BrownOut.obj [2]
DetectBrownOutRecover   0x08019eb3    0x50  Code  Lc  BrownOut.obj [2]
DetectRinseAidInjection
                        0x0800d981    0x42  Code  Gb  RinseAidMonitor.obj [2]
DetectStablePower       0x08019f03    0x34  Code  Lc  BrownOut.obj [2]
DiagnosticCheckIfInRange
                        0x0800fd45    0xa2  Code  Lc  TriacCurrentMonitor.obj [2]
DigitalLLI_Allocation   0x200045ac     0x1  Data  Lc  DigitalLLI.obj [2]
DigitalLLI_Data         0x200045b0    0x30  Data  Lc  DigitalLLI.obj [2]
DigitalLLI__Allocate    0x08032c31    0x12  Code  Gb  DigitalLLI.obj [2]
DigitalLLI__AsynchProcess
                        0x08032cc1    0xb4  Code  Gb  DigitalLLI.obj [2]
DigitalLLI__Get         0x08032ca7    0x1a  Code  Gb  DigitalLLI.obj [2]
DigitalLLI__Initialize  0x08032c1d    0x14  Code  Gb  DigitalLLI.obj [2]
DigitalLLI__InitializeInstance
                        0x08032c43    0x64  Code  Gb  DigitalLLI.obj [2]
DigitalOutputMultiPilot_Allocation
                        0x20004e3c     0x1  Data  Lc  DigitalOutputMultiPilot.obj [2]
DigitalOutputMultiPilot_Data
                        0x20004e34     0x8  Data  Lc  DigitalOutputMultiPilot.obj [2]
DigitalOutputMultiPilot__Allocate
                        0x08032457    0x12  Code  Gb  DigitalOutputMultiPilot.obj [2]
DigitalOutputMultiPilot__AsynchProcess
                        0x08032579    0x1c  Code  Gb  DigitalOutputMultiPilot.obj [2]
DigitalOutputMultiPilot__GetProcessed
                        0x0803253d    0x1e  Code  Gb  DigitalOutputMultiPilot.obj [2]
DigitalOutputMultiPilot__GetRequested
                        0x08032521    0x1c  Code  Gb  DigitalOutputMultiPilot.obj [2]
DigitalOutputMultiPilot__GetStatus
                        0x0803255b    0x1e  Code  Gb  DigitalOutputMultiPilot.obj [2]
DigitalOutputMultiPilot__Initialize
                        0x08032445    0x12  Code  Gb  DigitalOutputMultiPilot.obj [2]
DigitalOutputMultiPilot__InitializeInstance
                        0x08032469    0x4a  Code  Gb  DigitalOutputMultiPilot.obj [2]
DigitalOutputMultiPilot__Process
                        0x080324d3    0x4e  Code  Gb  DigitalOutputMultiPilot.obj [2]
DigitalOutputMultiPilot__Request
                        0x080324b3    0x20  Code  Gb  DigitalOutputMultiPilot.obj [2]
DigitalOutputPilot_Allocation
                        0x20004d9b     0x1  Data  Lc  DigitalOutputPilot.obj [2]
DigitalOutputPilot_Data
                        0x20004788    0x28  Data  Lc  DigitalOutputPilot.obj [2]
DigitalOutputPilot__Allocate
                        0x08032949    0x12  Code  Gb  DigitalOutputPilot.obj [2]
DigitalOutputPilot__GetProcessed
                        0x080329f9    0x1a  Code  Gb  DigitalOutputPilot.obj [2]
DigitalOutputPilot__GetRequested
                        0x080329e1    0x18  Code  Gb  DigitalOutputPilot.obj [2]
DigitalOutputPilot__Initialize
                        0x08032935    0x14  Code  Gb  DigitalOutputPilot.obj [2]
DigitalOutputPilot__InitializeInstance
                        0x0803295b    0x42  Code  Gb  DigitalOutputPilot.obj [2]
DigitalOutputPilot__Process
                        0x080329bd    0x24  Code  Gb  DigitalOutputPilot.obj [2]
DigitalOutputPilot__Request
                        0x0803299d    0x20  Code  Gb  DigitalOutputPilot.obj [2]
DigitalOutputPilot____GetStatus
                        0x08032a13    0x1e  Code  Gb  DigitalOutputPilot.obj [2]
DirectModification      0x08017b33    0x86  Code  Lc  Modifier.obj [2]
DirectToFault           0x080054a5    0x24  Code  Lc  Fault.obj [2]
Direct_BEMF_State_Deb   0x200047b1     0x1  Data  Lc  MclObserver.obj [2]
Direct_BEMF_State_Prev  0x200047b0     0x1  Data  Lc  MclObserver.obj [2]
Disable_Wash_Motor_Fault_Monitor
                        0x20004c9a     0x1  Data  Lc  WashMotorFaultMonitor.obj [2]
DishAuxVar_AverageWithRejection
                        0x08012a39   0x11e  Code  Gb  DishAuxVar.obj [2]
DishAuxVar__AreFlowMeterPulsesPresent
                        0x08012a1f     0x6  Code  Gb  DishAuxVar.obj [2]
DishAuxVar__GetACLine   0x08012973     0x6  Code  Gb  DishAuxVar.obj [2]
DishAuxVar__GetDiverterPosition
                        0x0801297f    0x18  Code  Gb  DishAuxVar.obj [2]
DishAuxVar__GetDoFactoryCycle
                        0x08012967     0x6  Code  Gb  DishAuxVar.obj [2]
DishAuxVar__GetLitersCurrentRegeneration
                        0x080129bd     0x6  Code  Gb  DishAuxVar.obj [2]
DishAuxVar__GetSensedDrainStatus
                        0x080129c9     0x6  Code  Gb  DishAuxVar.obj [2]
DishAuxVar__GetWaterLoadedSinceLastRegen
                        0x08012b5d     0x6  Code  Gb  DishAuxVar.obj [2]
DishAuxVar__Handler     0x080127c1   0x18a  Code  Gb  DishAuxVar.obj [2]
DishAuxVar__Initialize  0x080126a5    0xf4  Code  Gb  DishAuxVar.obj [2]
DishAuxVar__InitializeFlowMeterPulsesPresent
                        0x08012a25     0xe  Code  Gb  DishAuxVar.obj [2]
DishAuxVar__InitializePulseRef
                        0x080127b9     0x8  Code  Gb  DishAuxVar.obj [2]
DishAuxVar__IsDrainPumpOn
                        0x080129d5    0x2e  Code  Gb  DishAuxVar.obj [2]
DishAuxVar__ResetWaterCounterReference
                        0x0801299d    0x1a  Code  Gb  DishAuxVar.obj [2]
DishAuxVar__SetDoFactoryCycle
                        0x0801296d     0x6  Code  Gb  DishAuxVar.obj [2]
DishAuxVar__SetGenericBitmapBit
                        0x08012a03    0x1c  Code  Gb  DishAuxVar.obj [2]
DishAuxVar__SetLitersCurrentRegeneration
                        0x080129b7     0x6  Code  Gb  DishAuxVar.obj [2]
DishAuxVar__SetSensedDrainStatus
                        0x080129cf     0x6  Code  Gb  DishAuxVar.obj [2]
DishAuxVar__SetTimedFillRunning
                        0x08012979     0x6  Code  Gb  DishAuxVar.obj [2]
DishAuxVar__SetWaterLoadedSinceLastRegen
                        0x08012b57     0x6  Code  Gb  DishAuxVar.obj [2]
DishAuxVar__UpdatePulseRef
                        0x0801294b    0x1c  Code  Gb  DishAuxVar.obj [2]
Dish_General_Purpose_Variables
                        0x20000110     0x4  Data  Gb  DishAuxVar.obj [2]
DispenseDetergent       0x08030ee9    0x4a  Code  Lc  TridgeDetergent.obj [2]
DispenserOffTimerCheck  0x08031ad1    0x26  Code  Lc  RinseAid.obj [2]
DispenserOnTimerCheck   0x08031af7    0x3a  Code  Lc  RinseAid.obj [2]
Dispenser_Fault_Params  0x20004250     0x4  Data  Lc  TriacCurrentMonitor.obj [2]
Dispenser_State         0x20004df9     0x1  Data  Lc  RinseAidMonitor.obj [2]
Dispenser_State_Prev    0x20004dfa     0x1  Data  Lc  RinseAidMonitor.obj [2]
DiverterFaultMonitor__Execution
                        0x0802381f   0x15c  Code  Gb  DiverterFaultMonitor.obj [2]
DiverterFaultMonitor__Initialize
                        0x080237fd    0x22  Code  Gb  DiverterFaultMonitor.obj [2]
DiverterInLSAOrMSA      0x08010e71    0x14  Code  Lc  HeaterShadowing.obj [2]
DiverterLeakFaultMonitor__Execution
                        0x0800c183    0x8e  Code  Gb  DiverterLeakFaultMonitor.obj [2]
DiverterLeakFaultMonitor__Initialize
                        0x0800c179     0xa  Code  Gb  DiverterLeakFaultMonitor.obj [2]
DiverterLeakFaultMonitor__ResetFaultObserver
                        0x0800c211    0x2a  Code  Gb  DiverterLeakFaultMonitor.obj [2]
Diverter_Cam_Number     0x20004bc3     0x1  Data  Lc  AlternateLoad.obj [2]
Diverter_Fault_Checked  0x20004e79     0x1  Data  Lc  DiverterFaultMonitor.obj [2]
Diverter_Fault_Timer    0x20004e7a     0x2  Data  Lc  DiverterFaultMonitor.obj [2]
Diverter_Fb_Counter     0x20004e74     0x1  Data  Lc  DiverterFaultMonitor.obj [2]
Diverter_Fb_Status      0x20004e77     0x1  Data  Lc  DiverterFaultMonitor.obj [2]
Diverter_Fst_Driving_Done
                        0x2000419a     0x1  Data  Lc  DishAuxVar.obj [2]
Diverter_Is_Stable      0x20004196     0x1  Data  Lc  DishAuxVar.obj [2]
Diverter_Motor_Status   0x20004bc5     0x1  Data  Gb  AlternateLoad.obj [2]
Diverter_Position       0x200000f2     0x1  Data  Gb  DishAuxVar.obj [2]
Diverter_Rotate_Always  0x20004bc4     0x1  Data  Lc  AlternateLoad.obj [2]
Diverter_Rotation_Time  0x20004bc2     0x1  Data  Lc  AlternateLoad.obj [2]
Diverter_Should_Stop    0x20004e75     0x1  Data  Lc  DiverterFaultMonitor.obj [2]
DoCompensation          0x08030a31    0x38  Code  Lc  AnalogLLI.obj [2]
DoEvaluate              0x0801bb9d    0x58  Code  Lc  Condition.obj [2]
DoPinUpdate             0x08033145    0x68  Code  Lc  DefaultPin.obj [2]
DoPinUpdate             0x08032a31    0x4a  Code  Lc  DigitalOutputPilot.obj [2]
DoPinsUpdate            0x08032595    0x78  Code  Lc  DigitalOutputMultiPilot.obj [2]
Do_Factory_Cycle        0x20004dab     0x1  Data  Gb  DishAuxVar.obj [2]
Do_Not_Reset_Backrinse  0x20004aa9     0x1  Data  Lc  NormalFill.obj [2]
DoorMonitor__Execution  0x0800a9ab   0x10a  Code  Gb  DoorMonitor.obj [2]
DoorMonitor__GetDoorStatus
                        0x0800aac7     0x6  Code  Gb  DoorMonitor.obj [2]
DoorMonitor__GetStepAdvRequest
                        0x0800aac1     0x6  Code  Gb  DoorMonitor.obj [2]
DoorMonitor__Initialize
                        0x0800a979    0x32  Code  Gb  DoorMonitor.obj [2]
DoorMonitor__ResetStepAdvRequest
                        0x0800aab5     0xc  Code  Gb  DoorMonitor.obj [2]
DoorOpeningSystemMonitor_CheckIfPullNeeded
                        0x08011177    0x30  Code  Gb  DoorOpeningSystemMonitor.obj [2]
DoorOpeningSystemMonitor__Execution
                        0x080110d5    0xa2  Code  Gb  DoorOpeningSystemMonitor.obj [2]
DoorOpeningSystemMonitor__GetDOSPullState
                        0x080111d7     0x6  Code  Gb  DoorOpeningSystemMonitor.obj [2]
DoorOpeningSystemMonitor__GetDOSPushState
                        0x080111cb     0x6  Code  Gb  DoorOpeningSystemMonitor.obj [2]
DoorOpeningSystemMonitor__Initialize
                        0x08011039    0x9c  Code  Gb  DoorOpeningSystemMonitor.obj [2]
DoorOpeningSystemMonitor__IsDOSPinFullyRetracted
                        0x080111e3    0x12  Code  Gb  DoorOpeningSystemMonitor.obj [2]
DoorOpeningSystemMonitor__IsDoorOpenedByDOS
                        0x080111bf     0x6  Code  Gb  DoorOpeningSystemMonitor.obj [2]
DoorOpeningSystemMonitor__SetDOSPullState
                        0x080111dd     0x6  Code  Gb  DoorOpeningSystemMonitor.obj [2]
DoorOpeningSystemMonitor__SetDOSPushState
                        0x080111d1     0x6  Code  Gb  DoorOpeningSystemMonitor.obj [2]
DoorOpeningSystemMonitor__SetDoorOpenedByDOS
                        0x080111c5     0x6  Code  Gb  DoorOpeningSystemMonitor.obj [2]
DoorOpeningSystemMonitor__StartPull
                        0x080111a7    0x18  Code  Gb  DoorOpeningSystemMonitor.obj [2]
DoorOpeningSystemPull__Initialize
                        0x080333f7    0x38  Code  Gb  DoorOpeningSystemPull.obj [2]
DoorOpeningSystemPull__NVDataRestore
                        0x08033441     0x2  Code  Gb  DoorOpeningSystemPull.obj [2]
DoorOpeningSystemPull__Task
                        0x0803342f    0x12  Code  Gb  DoorOpeningSystemPull.obj [2]
DoorOpeningSystemPull__Terminate
                        0x08033443     0x2  Code  Gb  DoorOpeningSystemPull.obj [2]
DoorOpeningSystemPush__Initialize
                        0x0801c061    0x3e  Code  Gb  DoorOpeningSystemPush.obj [2]
DoorOpeningSystemPush__NVDataRestore
                        0x0801c169    0x3e  Code  Gb  DoorOpeningSystemPush.obj [2]
DoorOpeningSystemPush__StartPush
                        0x0801c1a9    0x1e  Code  Gb  DoorOpeningSystemPush.obj [2]
DoorOpeningSystemPush__Task
                        0x0801c09f    0xca  Code  Gb  DoorOpeningSystemPush.obj [2]
DoorOpeningSystemPush__Terminate
                        0x0801c1a7     0x2  Code  Gb  DoorOpeningSystemPush.obj [2]
Door_Sequence_ID        0x20004a90     0x1  Data  Lc  HotHighPotMonitor.obj [2]
Door_Status             0x20004f30     0x1  Data  Gb  DoorMonitor.obj [2]
Door_Time               0x200049a9     0x1  Data  Lc  MoisturePreventionMonitor.obj [2]
DrainCommand_Counter    0x200008e5     0x1  Data  Lc  PartialDrainProcess.obj [2]
DrainCommand_Counter    0x20003624     0x1  Data  Lc  SensedDrainProcess.obj [2]
DrainCommand_Decrement  0x0801daab    0x44  Code  Lc  PartialDrainProcess.obj [2]
DrainCommand_Decrement  0x0801256f    0x54  Code  Lc  SensedDrainProcess.obj [2]
DrainCommand_Previous   0x200008e6     0x1  Data  Lc  PartialDrainProcess.obj [2]
DrainCommand_Previous   0x20003626     0x1  Data  Lc  SensedDrainProcess.obj [2]
DrainPump_IsStopped     0x200008e4     0x1  Data  Lc  PartialDrainProcess.obj [2]
DrainPump_ReachedTargetSpeed
                        0x200008e3     0x1  Data  Lc  PartialDrainProcess.obj [2]
DrainSpeed_Previous     0x20003630     0x2  Data  Lc  SensedDrainProcess.obj [2]
Drain_Current_GI_Index  0x20004cc5     0x1  Data  Lc  TriacShortedDrainFaultMonitor.obj [2]
Drain_Fault_Detection   0x20004234     0x1  Data  Lc  TriacCurrentMonitor.obj [2]
Drain_Fault_Params      0x20004cd0     0x4  Data  Lc  TriacShortedDrainFaultMonitor.obj [2]
Drain_Previous_State    0x20004cc8     0x1  Data  Lc  TriacShortedDrainFaultMonitor.obj [2]
Drain_Pump_Pilot_Type   0x20004106     0x1  Data  Lc  AlternateCtrl.obj [2]
Drain_Pump_Pilot_Type   0x20004f61     0x1  Data  Lc  PumpFlushRequestMonitor.obj [2]
Drain_State             0x20004cc7     0x1  Data  Lc  TriacShortedDrainFaultMonitor.obj [2]
Drain_Stop_Sent         0x20004f63     0x1  Data  Lc  PumpFlushRequestMonitor.obj [2]
Drain_Triac_Fault_Stabilization_Counter
                        0x20004cc4     0x1  Data  Lc  TriacShortedDrainFaultMonitor.obj [2]
DriveSelectedLoads      0x0802dc55    0x72  Code  Lc  LoadsControl.obj [2]
DriveTimerDevice        0x0802f945    0xa8  Code  Lc  PwmHiResPilot.obj [2]
DriveTimerDevice        0x08030429    0x98  Code  Lc  PwmPilot.obj [2]
DriveTriac              0x0802b2cd   0x168  Code  Lc  MclTriacDrive.obj [2]
DropMessageFromQueue    0x08016e99    0x2a  Code  Lc  Reveal.obj [2]
DropSendingMessage      0x0801fb13    0x12  Code  Lc  Win.obj [2]
EXIT_STATE              0x0801cef7    0x2a  Code  Lc  SensedDrainModel.obj [2]
EXTERNALLY_MANAGED_REGULATIONS
                        0x08024760     0x8  Data  Lc  RegulationAccept.obj [2]
EmbOSBasic__SystickHandler
                        0x0801f12d    0x8c  Code  Gb  EmbOSBasic.obj [2]
EmbOSBasics__FlushOS    0x0801f1b9    0x44  Code  Gb  EmbOSBasic.obj [2]
EmulatePwm              0x0802f7f5   0x14c  Code  Lc  PwmHiResPilot.obj [2]
EmulatePwm              0x080302e9   0x138  Code  Lc  PwmPilot.obj [2]
EndEntry                0x080043e9    0xcc  Code  Lc  Supervisor.obj [2]
Enzime_Tag_Operating_Temperature
                        0x2000477c     0x1  Data  Gb  CartridgeDetectionMonitor.obj [2]
EoL_Cycle_Running       0x200049ea     0x1  Data  Lc  AutostartFactoryCycleMonitor.obj [2]
EolExit                 0x0802f3c3    0x5e  Code  Lc  TestMgr.obj [2]
Eol_Test_Index          0x200003e0     0x1  Data  Lc  TestMgr.obj [2]
EstimateRightFeedbackLevel
                        0x0801be05    0x62  Code  Lc  TriacVoltageMonitor.obj [2]
Estimated_Remaining_Time
                        0x20000138     0x2  Data  Gb  Estimator.obj [2]
EstimationBegin         0x08009cd9   0x1d8  Code  Lc  Estimator.obj [2]
EstimationContinue      0x08009eb1   0x13c  Code  Lc  Estimator.obj [2]
Estimator               0x20004648    0x30  Data  Lc  Estimator.obj [2]
Estimator_Nv            0x2000011c    0x1c  Data  Lc  Estimator.obj [2]
Estimator__Background   0x08009aeb    0x88  Code  Gb  Estimator.obj [2]
Estimator__Countdown    0x08009b73    0x14  Code  Gb  Estimator.obj [2]
Estimator__EstimateFast
                        0x08009b87    0x14  Code  Gb  Estimator.obj [2]
Estimator__GetRemainingSeconds
                        0x08009b9b     0xe  Code  Gb  Estimator.obj [2]
Estimator__Initialize   0x08009aa5    0x46  Code  Gb  Estimator.obj [2]
EvalTimer               0x0801aed7    0x8e  Code  Lc  SystemTimers.obj [2]
EvaluateRinseAid_State  0x0800d9ed    0x7c  Code  Gb  RinseAidMonitor.obj [2]
EventActivate           0x0802e225    0x14  Code  Lc  LoadsControl.obj [2]
EventAlternateFixed     0x080292b9    0x30  Code  Lc  AlternateCtrl.obj [2]
EventAlternateFixedExternalMotor
                        0x080292e9    0x20  Code  Lc  AlternateCtrl.obj [2]
EventBrownOutDetected   0x08019f65     0xe  Code  Lc  BrownOut.obj [2]
EventBrownout           0x080079eb     0xe  Code  Lc  NVData.obj [2]
EventCheckConditionsToExitTrue
                        0x0800be19    0x16  Code  Lc  NormalFill.obj [2]
EventCheckConditionsToExitTrue
                        0x0800e747     0xe  Code  Lc  OWIOneShot.obj [2]
EventCheckInitConditionsTrue
                        0x0800be35    0x12  Code  Lc  NormalFill.obj [2]
EventCheckNewProfileFalse
                        0x08029309    0x28  Code  Lc  AlternateCtrl.obj [2]
EventCheckNewProfileTrue
                        0x08029331    0x30  Code  Lc  AlternateCtrl.obj [2]
EventCheckNewProfileTrueExternalMotor
                        0x08029361    0x24  Code  Lc  AlternateCtrl.obj [2]
EventCheckTargConditionTrue
                        0x08029385    0x28  Code  Lc  AlternateCtrl.obj [2]
EventCheckTargConditionTrue
                        0x080119ad    0x12  Code  Lc  Heat.obj [2]
EventCheckTargetSpeedTrue
                        0x080293ad    0x30  Code  Lc  AlternateCtrl.obj [2]
EventCheckTimeoutTrue   0x080119bf    0x12  Code  Lc  Heat.obj [2]
EventClosedFailureDebounceCompleted
                        0x0801ccc5     0xe  Code  Lc  PilotRelayStuckClosedMonitor.obj [2]
EventClosedFailureDetected
                        0x0801ccd3    0x16  Code  Lc  PilotRelayStuckClosedMonitor.obj [2]
EventClosedFailureReset
                        0x0801cce9    0x18  Code  Lc  PilotRelayStuckClosedMonitor.obj [2]
EventCompleteProcess    0x0800be47    0x12  Code  Lc  NormalFill.obj [2]
EventConditionsFalse    0x080293dd    0x18  Code  Lc  AlternateCtrl.obj [2]
EventCountDownDisabled  0x0800e4ff    0x16  Code  Lc  Maintain.obj [2]
EventCountDownEnabled   0x0800e515    0x30  Code  Lc  Maintain.obj [2]
EventCycleResume        0x08010e95    0x18  Code  Lc  HeaterShadowing.obj [2]
EventDCLoadCurrentSettingDataMissing
                        0x0801085f     0xe  Code  Lc  DCLoadCurrentMonitor.obj [2]
EventDCLoadCurrentStartMonitor
                        0x0801086d    0x16  Code  Lc  DCLoadCurrentMonitor.obj [2]
EventDeactivate         0x0802e23d    0x14  Code  Lc  LoadsControl.obj [2]
EventDebounceCompleted  0x080243ad     0xe  Code  Lc  TriacShortedDrainFaultMonitor.obj [2]
EventDebounceCompletedF10E1
                        0x080100f3     0xe  Code  Lc  TriacCurrentMonitor.obj [2]
EventDebounceCompletedF10E2F8E7
                        0x08010101     0xe  Code  Lc  TriacCurrentMonitor.obj [2]
EventDebounceCompletedF10E3
                        0x08010883     0xe  Code  Lc  DCLoadCurrentMonitor.obj [2]
EventDebounceCompletedF1E50
                        0x0801010f     0xe  Code  Lc  TriacCurrentMonitor.obj [2]
EventDebounceCompletedF1E51
                        0x0801011d     0xe  Code  Lc  TriacCurrentMonitor.obj [2]
EventDebounceCompletedF1E523
                        0x0801012b     0xe  Code  Lc  TriacCurrentMonitor.obj [2]
EventDebounceCompletedF1E54
                        0x08010139     0xe  Code  Lc  TriacCurrentMonitor.obj [2]
EventDebounceCompletedF1E55
                        0x08010147     0xe  Code  Lc  TriacCurrentMonitor.obj [2]
EventDebounceCompletedF5E3
                        0x0801089f     0xe  Code  Lc  DCLoadCurrentMonitor.obj [2]
EventDebounceCompletedF8E2
                        0x08010155     0xe  Code  Lc  TriacCurrentMonitor.obj [2]
EventDebounceCompletedF9E2
                        0x08010163     0xe  Code  Lc  TriacCurrentMonitor.obj [2]
EventDebounceCompletedF9E4
                        0x08010891     0xe  Code  Lc  DCLoadCurrentMonitor.obj [2]
EventDebounceInputNOK   0x0800f349    0x1a  Code  Lc  FillValveStuckOn.obj [2]
EventDebounceInputOK    0x0800f363    0x18  Code  Lc  FillValveStuckOn.obj [2]
EventDelayBtwSamplesExpired
                        0x0800cf31    0x1a  Code  Lc  OwiVroRead.obj [2]
EventDelayExpired       0x08010ead    0x18  Code  Lc  HeaterShadowing.obj [2]
EventDelayFvRvOffExpired
                        0x0801a4df    0x16  Code  Lc  Regenerate.obj [2]
EventDelayRvFvOnExpired
                        0x0801a4f5    0x16  Code  Lc  Regenerate.obj [2]
EventDirectControl      0x080293f5    0x26  Code  Lc  AlternateCtrl.obj [2]
EventDispenserEnd       0x08031b55    0x18  Code  Lc  RinseAid.obj [2]
EventDispenserOff       0x08031b6d    0x18  Code  Lc  RinseAid.obj [2]
EventDispenserOn        0x08031b85    0x1e  Code  Lc  RinseAid.obj [2]
EventDiverterPositionChanged
                        0x08010ec5    0x18  Code  Lc  HeaterShadowing.obj [2]
EventDiverterPositionUnknown
                        0x08010edd    0x18  Code  Lc  HeaterShadowing.obj [2]
EventEnable             0x0802497b    0x16  Code  Lc  StatusLed.obj [2]
EventEnd                0x0802f4a7    0x2c  Code  Lc  TestMgr.obj [2]
EventEngageEol          0x0802f4d3    0x34  Code  Lc  TestMgr.obj [2]
EventEngageService      0x0802f507    0x34  Code  Lc  TestMgr.obj [2]
EventError              0x0802941b    0x1c  Code  Lc  AlternateCtrl.obj [2]
EventError              0x0801397f    0x18  Code  Lc  PumpControl.obj [2]
EventErrorWaitStopped   0x08029437    0x20  Code  Lc  AlternateCtrl.obj [2]
EventErrorWaitStopped   0x08013997    0x22  Code  Lc  PumpControl.obj [2]
EventF10E1FailureDetected
                        0x08010175    0x20  Code  Lc  TriacCurrentMonitor.obj [2]
EventF10E2F8E7FailureDetected
                        0x08010195    0x20  Code  Lc  TriacCurrentMonitor.obj [2]
EventF10E3FailureDetected
                        0x080108ad    0x1c  Code  Lc  DCLoadCurrentMonitor.obj [2]
EventF1E50FailureDetected
                        0x080101b5    0x20  Code  Lc  TriacCurrentMonitor.obj [2]
EventF1E51FailureDetected
                        0x080101d5    0x1e  Code  Lc  TriacCurrentMonitor.obj [2]
EventF1E523FailureDetected
                        0x080101f3    0x1a  Code  Lc  TriacCurrentMonitor.obj [2]
EventF1E54FailureDetected
                        0x0801020d    0x20  Code  Lc  TriacCurrentMonitor.obj [2]
EventF1E55FailureDetected
                        0x0801022d    0x20  Code  Lc  TriacCurrentMonitor.obj [2]
EventF5E3FailureDetected
                        0x080108fb    0x1a  Code  Lc  DCLoadCurrentMonitor.obj [2]
EventF8E2FailureDetected
                        0x0801024d    0x1e  Code  Lc  TriacCurrentMonitor.obj [2]
EventF9E2FailureDetected
                        0x0801026b    0x1a  Code  Lc  TriacCurrentMonitor.obj [2]
EventF9E4FailureDetected
                        0x080108c9    0x1a  Code  Lc  DCLoadCurrentMonitor.obj [2]
EventFailureDetected    0x080243bb    0x16  Code  Lc  TriacShortedDrainFaultMonitor.obj [2]
EventFaultDetected      0x08023d29    0x16  Code  Lc  CommunicationMonitor.obj [2]
EventFaultRecovered     0x08023d3f    0x16  Code  Lc  CommunicationMonitor.obj [2]
EventFaultReset         0x080108e3    0x18  Code  Lc  DCLoadCurrentMonitor.obj [2]
EventFaultReset         0x08010285    0x18  Code  Lc  TriacCurrentMonitor.obj [2]
EventFillFaultReset     0x0800f37b    0x1c  Code  Lc  FillValveStuckOn.obj [2]
EventH2OAlarm           0x0800be59    0x18  Code  Lc  NormalFill.obj [2]
EventHeaterFaultReset   0x0801c6cb    0x18  Code  Lc  HeaterLineRelayOpenMonitor.obj [2]
EventHeaterFaultReset   0x0801c55b    0x18  Code  Lc  HeaterNeutralRelayOpenMonitor.obj [2]
EventHeaterOff          0x08010ef5    0x18  Code  Lc  HeaterShadowing.obj [2]
EventHeaterOn           0x08010f15    0x2e  Code  Lc  HeaterShadowing.obj [2]
EventHeaterOpenAndRelayLClosedDebounceCompleted
                        0x0801cb67     0xe  Code  Lc  HeaterOpenAndLineRelayClosedMonitor.obj [2]
EventHeaterOpenAndRelayLClosedDetected
                        0x0801cb75    0x16  Code  Lc  HeaterOpenAndLineRelayClosedMonitor.obj [2]
EventHeaterOpenAndRelayLClosedFaultReset
                        0x0801cb8b    0x18  Code  Lc  HeaterOpenAndLineRelayClosedMonitor.obj [2]
EventHeaterOpenDebounceCompleted
                        0x0801c9c9     0xe  Code  Lc  HeaterOpenMonitor.obj [2]
EventHeaterOpenDetected
                        0x0801c9d7    0x16  Code  Lc  HeaterOpenMonitor.obj [2]
EventHeaterOpenFaultReset
                        0x0801c9ed    0x18  Code  Lc  HeaterOpenMonitor.obj [2]
EventHeaterShadowingNotActive
                        0x08010f43    0x14  Code  Lc  HeaterShadowing.obj [2]
EventHoldTimeExpired    0x08010f5d    0x50  Code  Lc  HeaterShadowing.obj [2]
EventHysteresisOff      0x0802e251    0x1e  Code  Lc  LoadsControl.obj [2]
EventHysteresisOn       0x0802e26f    0x1e  Code  Lc  LoadsControl.obj [2]
EventHysteresysTemp     0x080119d1    0x12  Code  Lc  Heat.obj [2]
EventInitialDelayExpired
                        0x0800cf4b    0x1c  Code  Lc  OwiVroRead.obj [2]
EventInitialize         0x0800e545    0x12  Code  Lc  Maintain.obj [2]
EventInitialize         0x0800be71    0x12  Code  Lc  NormalFill.obj [2]
EventLeakageDebounced   0x0801c843     0xe  Code  Lc  HeaterLeakageMonitor.obj [2]
EventLeakageDetected    0x0801c851    0x16  Code  Lc  HeaterLeakageMonitor.obj [2]
EventLeakageFaultReset  0x0801c867    0x18  Code  Lc  HeaterLeakageMonitor.obj [2]
EventLedTimerExpired    0x08024991    0x24  Code  Lc  StatusLed.obj [2]
EventMoreStepsInProfile
                        0x080249b5    0x16  Code  Lc  StatusLed.obj [2]
EventNewSampleAcquired  0x0800cf67    0x12  Code  Lc  OwiVroRead.obj [2]
EventNoClosedFailurePresent
                        0x0801cd01    0x16  Code  Lc  PilotRelayStuckClosedMonitor.obj [2]
EventNoFailureF10E1Present
                        0x0801029d    0x16  Code  Lc  TriacCurrentMonitor.obj [2]
EventNoFailureF10E2F8E7Present
                        0x080102b3    0x16  Code  Lc  TriacCurrentMonitor.obj [2]
EventNoFailureF10E3Present
                        0x08010919    0x16  Code  Lc  DCLoadCurrentMonitor.obj [2]
EventNoFailureF1E50Present
                        0x080102c9    0x16  Code  Lc  TriacCurrentMonitor.obj [2]
EventNoFailureF1E51Present
                        0x080102df    0x16  Code  Lc  TriacCurrentMonitor.obj [2]
EventNoFailureF1E523Present
                        0x080102f5    0x16  Code  Lc  TriacCurrentMonitor.obj [2]
EventNoFailureF1E54Present
                        0x0801030b    0x16  Code  Lc  TriacCurrentMonitor.obj [2]
EventNoFailureF1E55Present
                        0x08010321    0x16  Code  Lc  TriacCurrentMonitor.obj [2]
EventNoFailureF5E3Present
                        0x08010945    0x16  Code  Lc  DCLoadCurrentMonitor.obj [2]
EventNoFailureF8E2Present
                        0x08010337    0x16  Code  Lc  TriacCurrentMonitor.obj [2]
EventNoFailureF9E2Present
                        0x0801034d    0x16  Code  Lc  TriacCurrentMonitor.obj [2]
EventNoFailureF9E4Present
                        0x0801092f    0x16  Code  Lc  DCLoadCurrentMonitor.obj [2]
EventNoFailurePresent   0x080243d1    0x16  Code  Lc  TriacShortedDrainFaultMonitor.obj [2]
EventNoHeaterOpenAndRelayLClosedFailurePresent
                        0x0801cba3    0x16  Code  Lc  HeaterOpenAndLineRelayClosedMonitor.obj [2]
EventNoHeaterOpenFailurePresent
                        0x0801ca05    0x16  Code  Lc  HeaterOpenMonitor.obj [2]
EventNoLeakageFailurePresent
                        0x0801c87f    0x16  Code  Lc  HeaterLeakageMonitor.obj [2]
EventNoMoreTrials       0x0800f397    0x18  Code  Lc  FillValveStuckOn.obj [2]
EventNoOpenFailurePresent
                        0x0801ce25    0x16  Code  Lc  PilotRelayStuckOpenMonitor.obj [2]
EventNoOpenFailurePresent
                        0x0801c275    0x16  Code  Lc  ThermistorOpenMonitor.obj [2]
EventNoRelayLOpenFailurePresent
                        0x0801c6e3    0x14  Code  Lc  HeaterLineRelayOpenMonitor.obj [2]
EventNoRelayNOpenFailurePresent
                        0x0801c573    0x16  Code  Lc  HeaterNeutralRelayOpenMonitor.obj [2]
EventNoShortedFailurePresent
                        0x0801c3b5    0x16  Code  Lc  ThermistorShortedMonitor.obj [2]
EventNormalFill         0x0800be89    0x18  Code  Lc  NormalFill.obj [2]
EventNormalFillOver     0x0800bead    0x18  Code  Lc  NormalFill.obj [2]
EventOWIOneShot         0x0800e755     0xe  Code  Lc  OWIOneShot.obj [2]
EventOpenDetected       0x0801c28b    0x16  Code  Lc  ThermistorOpenMonitor.obj [2]
EventOpenFailureDebounceCompleted
                        0x0801ce3b     0xe  Code  Lc  PilotRelayStuckOpenMonitor.obj [2]
EventOpenFailureDebounced
                        0x0801c2a1     0xe  Code  Lc  ThermistorOpenMonitor.obj [2]
EventOpenFailureDetected
                        0x0801ce49    0x16  Code  Lc  PilotRelayStuckOpenMonitor.obj [2]
EventOpenFailureReset   0x0801ce5f    0x18  Code  Lc  PilotRelayStuckOpenMonitor.obj [2]
EventOpenFaultReset     0x0801c2af    0x16  Code  Lc  ThermistorOpenMonitor.obj [2]
EventParameterKo        0x080139b9    0x14  Code  Lc  PumpControl.obj [2]
EventParameterOk        0x080139cd    0x22  Code  Lc  PumpControl.obj [2]
EventParameterOkNoExternalMotor
                        0x080139ef    0x14  Code  Lc  PumpControl.obj [2]
EventPerformChangeCheck
                        0x0801bfdd     0xe  Code  Lc  TriacVoltageMonitor.obj [2]
EventPerformEvaluation  0x0801bfeb     0xe  Code  Lc  TriacVoltageMonitor.obj [2]
EventPerformRequests    0x0801bff9    0x14  Code  Lc  TriacVoltageMonitor.obj [2]
EventPerformVerification
                        0x0801c00d     0xe  Code  Lc  TriacVoltageMonitor.obj [2]
EventProfileFinished    0x080249cb    0x18  Code  Lc  StatusLed.obj [2]
EventPulseOff           0x0802e28d    0x1e  Code  Lc  LoadsControl.obj [2]
EventPulseOn            0x0802e2ab    0x1e  Code  Lc  LoadsControl.obj [2]
EventRecovered          0x080079f9     0xe  Code  Lc  NVData.obj [2]
EventRegenerationProcessCompleted
                        0x0801a50b     0xe  Code  Lc  Regenerate.obj [2]
EventRegenerationWaterLoaded
                        0x0801a519    0x16  Code  Lc  Regenerate.obj [2]
EventRelayLOpenDebounceCompleted
                        0x0801c6f7     0xe  Code  Lc  HeaterLineRelayOpenMonitor.obj [2]
EventRelayLOpenDetected
                        0x0801c705    0x16  Code  Lc  HeaterLineRelayOpenMonitor.obj [2]
EventRelayNOpenDebounceCompleted
                        0x0801c589     0xe  Code  Lc  HeaterNeutralRelayOpenMonitor.obj [2]
EventRelayNOpenDetected
                        0x0801c597    0x16  Code  Lc  HeaterNeutralRelayOpenMonitor.obj [2]
EventReqSubModeError    0x0800956d    0x22  Code  Lc  Mode.obj [2]
EventReqSubModeExtControlEngaged
                        0x0800958f    0x26  Code  Lc  Mode.obj [2]
EventReqSubModeExtControlEntering
                        0x080095b5    0x18  Code  Lc  Mode.obj [2]
EventReqSubModeSupervisor
                        0x080095cd    0x42  Code  Lc  Mode.obj [2]
EventRestart            0x08013a03    0x22  Code  Lc  PumpControl.obj [2]
EventRestartClosureState
                        0x0801a52f    0x16  Code  Lc  Regenerate.obj [2]
EventSampleProcessed    0x0800cf79    0x12  Code  Lc  OwiVroRead.obj [2]
EventSettingDataMissing
                        0x0800f3af    0x12  Code  Lc  FillValveStuckOn.obj [2]
EventSettingDataMissing
                        0x0801c895     0xe  Code  Lc  HeaterLeakageMonitor.obj [2]
EventSettingDataMissing
                        0x0801c71b     0xe  Code  Lc  HeaterLineRelayOpenMonitor.obj [2]
EventSettingDataMissing
                        0x0801c5ad     0xe  Code  Lc  HeaterNeutralRelayOpenMonitor.obj [2]
EventSettingDataMissing
                        0x0801cbb9     0xe  Code  Lc  HeaterOpenAndLineRelayClosedMonitor.obj [2]
EventSettingDataMissing
                        0x0801ca1b     0xe  Code  Lc  HeaterOpenMonitor.obj [2]
EventSettingDataMissing
                        0x0801cd17     0xe  Code  Lc  PilotRelayStuckClosedMonitor.obj [2]
EventSettingDataMissing
                        0x0801ce77     0xe  Code  Lc  PilotRelayStuckOpenMonitor.obj [2]
EventSettingDataMissing
                        0x08010363     0xe  Code  Lc  TriacCurrentMonitor.obj [2]
EventSettingDataMissing
                        0x080243e7     0xe  Code  Lc  TriacShortedDrainFaultMonitor.obj [2]
EventShortedDetected    0x0801c3cb    0x16  Code  Lc  ThermistorShortedMonitor.obj [2]
EventShortedFailureDebounced
                        0x0801c3e1     0xe  Code  Lc  ThermistorShortedMonitor.obj [2]
EventShortedFaultReset  0x0801c3ef    0x16  Code  Lc  ThermistorShortedMonitor.obj [2]
EventSkipOwiVro         0x0800cf8b    0x12  Code  Lc  OwiVroRead.obj [2]
EventSkipRegeneration   0x0801a545    0x16  Code  Lc  Regenerate.obj [2]
EventStablePower        0x08019f73    0x12  Code  Lc  BrownOut.obj [2]
EventStartDetection     0x0800f3c5    0x18  Code  Lc  FillValveStuckOn.obj [2]
EventStartHeaterShadowingAlgorithm
                        0x08010fad    0x16  Code  Lc  HeaterShadowing.obj [2]
EventStartMonitor       0x0801c8a3    0x16  Code  Lc  HeaterLeakageMonitor.obj [2]
EventStartMonitor       0x0801c729    0x14  Code  Lc  HeaterLineRelayOpenMonitor.obj [2]
EventStartMonitor       0x0801c5bb    0x16  Code  Lc  HeaterNeutralRelayOpenMonitor.obj [2]
EventStartMonitor       0x0801cbc7    0x16  Code  Lc  HeaterOpenAndLineRelayClosedMonitor.obj [2]
EventStartMonitor       0x0801ca29    0x16  Code  Lc  HeaterOpenMonitor.obj [2]
EventStartMonitor       0x0801cd25    0x16  Code  Lc  PilotRelayStuckClosedMonitor.obj [2]
EventStartMonitor       0x0801ce85    0x16  Code  Lc  PilotRelayStuckOpenMonitor.obj [2]
EventStartMonitor       0x08010371    0x16  Code  Lc  TriacCurrentMonitor.obj [2]
EventStartMonitor       0x080243f5    0x16  Code  Lc  TriacShortedDrainFaultMonitor.obj [2]
EventStartOwiVro        0x0800cf9d    0x1a  Code  Lc  OwiVroRead.obj [2]
EventStartRegenerate    0x0801a55b    0x16  Code  Lc  Regenerate.obj [2]
EventStopSamplesAcquisition
                        0x0800cfb7    0x12  Code  Lc  OwiVroRead.obj [2]
EventStoreFail          0x08007a0d    0x16  Code  Lc  NVData.obj [2]
EventStoreSuccess       0x08007a23     0xe  Code  Lc  NVData.obj [2]
EventSubcycleRequested  0x0800bec5    0x14  Code  Lc  NormalFill.obj [2]
EventTargetTemp         0x080119e3    0x12  Code  Lc  Heat.obj [2]
EventTimedConditionsToExitTrue
                        0x0800bedd    0x12  Code  Lc  NormalFill.obj [2]
EventTimedFill          0x0800beef    0x18  Code  Lc  NormalFill.obj [2]
EventTimeout            0x0800e557    0x16  Code  Lc  Maintain.obj [2]
EventTimeoutExpired     0x08010fc3    0x16  Code  Lc  HeaterShadowing.obj [2]
EventTimeoutExpired     0x0800e763     0xe  Code  Lc  OWIOneShot.obj [2]
EventTimerElapseWithPulses
                        0x0800f41f    0x46  Code  Lc  FillValveStuckOn.obj [2]
EventTimerElapseWithoutPulses
                        0x0800f3dd    0x42  Code  Lc  FillValveStuckOn.obj [2]
EventTimerExpired       0x0800f465    0x44  Code  Lc  FillValveStuckOn.obj [2]
EventTimerExpired       0x0800960f    0x22  Code  Lc  Mode.obj [2]
EventTriacShortedDrainFaultReset
                        0x0802440b    0x18  Code  Lc  TriacShortedDrainFaultMonitor.obj [2]
EventWaterDetected      0x0800bf07    0x18  Code  Lc  NormalFill.obj [2]
ExecuteFaultDebounceMethod
                        0x08005101    0x3a  Code  Lc  Fault.obj [2]
ExecuteTaskManipulation
                        0x08009985    0x5e  Code  Lc  ActivateTask.obj [2]
ExecuteTasks            0x080151b1    0x12  Code  Lc  SRMain.obj [2]
ExitSubCycle            0x08006239   0x10a  Code  Lc  Interpreter.obj [2]
ExpansionLLI__Allocate  0x08033335    0x12  Code  Gb  ExpansionLLI.obj [2]
ExpansionLLI__Get       0x0803335d    0x2c  Code  Gb  ExpansionLLI.obj [2]
ExpansionLLI__Initialize
                        0x08033321    0x14  Code  Gb  ExpansionLLI.obj [2]
ExpansionLLI__InitializeInstance
                        0x08033347    0x16  Code  Gb  ExpansionLLI.obj [2]
Expansion_LLI_Allocation
                        0x20004e8c     0x1  Data  Lc  ExpansionLLI.obj [2]
ExtInterrupt__Config    0x08021b05    0xd0  Code  Gb  ExtInterrupt.obj [2]
ExtInterrupt__Initialize
                        0x08021af9     0xc  Code  Gb  ExtInterrupt.obj [2]
ExternalEventDebounce   0x080055c1    0xd8  Code  Lc  Fault.obj [2]
External_Request        0x20004f3c     0x4  Data  Lc  Supervisor.obj [2]
ExtractAbsPointer       0x08012fc9    0x38  Code  Lc  SettingFile.obj [2]
ExtractData             0x0802185b    0x24  Code  Lc  Convert.obj [2]
FAULT_DEFAULT_DEBOUNCE_CONFIG
                        0x080052e8     0x8  Data  Lc  Fault.obj [2]
FAULT_REF               0x080086a0     0xc  Data  Lc  Statistics.obj [2]
FIT_APPLICATION_TABLE   0x080030c0    0x24  Data  Gb  FITMgr.obj [2]
FIT_TABLE_OFFSET {Abs}  0x000000c0          Data  Gb  command line/config [3]
FLASH_START_ADDRESS {Abs}
                        0x08000000          Data  Gb  command line/config [3]
FLASH_TOTAL_SIZE {Abs}  0x00040000          Data  Gb  command line/config [3]
FactorCurr              0x200047cc     0x4  Data  Lc  MclObserver.obj [2]
FactorDeltaCurr         0x200047d0     0x4  Data  Lc  MclObserver.obj [2]
FactorDeltaCurr_For_High_Current
                        0x200047d4     0x4  Data  Lc  MclObserver.obj [2]
Fault                   0x20004508    0x38  Data  Lc  Fault.obj [2]
FaultDo                 0x080044b9    0x80  Code  Lc  Supervisor.obj [2]
FaultEntry              0x08004539    0x7e  Code  Lc  Supervisor.obj [2]
FaultObserverExecute    0x0800569d    0x30  Code  Lc  Fault.obj [2]
FaultObserverInitialize
                        0x080056cd    0x30  Code  Lc  Fault.obj [2]
FaultObserverTerminate  0x080056fd    0x1a  Code  Lc  Fault.obj [2]
FaultStatusMonitor__Execution
                        0x08023709    0x9e  Code  Gb  FaultStatusMonitor.obj [2]
FaultStatusMonitor__Initialize
                        0x080236ed    0x1a  Code  Gb  FaultStatusMonitor.obj [2]
Fault_Id                0x20004d99     0x1  Data  Gb  Fault.obj [2]
Fault_Nv                0x2000013c    0x34  Data  Lc  Fault.obj [2]
Fault_Observer_Transitioned
                        0x20004e4b     0x1  Data  Lc  Fault.obj [2]
Fault_Status_Bitmap_0_15
                        0x20004846     0x2  Data  Gb  FaultStatusMonitor.obj [2]
Fault_Status_Bitmap_16_31
                        0x20004848     0x2  Data  Gb  FaultStatusMonitor.obj [2]
Fault_Status_Bitmap_32_47
                        0x2000484a     0x2  Data  Gb  FaultStatusMonitor.obj [2]
Fault_Status_Bitmap_48_63
                        0x2000484c     0x2  Data  Gb  FaultStatusMonitor.obj [2]
Fault_Status_Bitmap_64_79
                        0x2000484e     0x2  Data  Gb  FaultStatusMonitor.obj [2]
Fault__Background       0x08004dcd    0x46  Code  Gb  Fault.obj [2]
Fault__CompartmentManaged
                        0x08004e13    0x14  Code  Gb  Fault.obj [2]
Fault__CompartmentReset
                        0x08004e27    0x52  Code  Gb  Fault.obj [2]
Fault__ConditionDetected
                        0x08004e79    0xa8  Code  Gb  Fault.obj [2]
Fault__ConditionRemoved
                        0x08004f21    0x48  Code  Gb  Fault.obj [2]
Fault__GetEventInfo     0x08004f69    0x32  Code  Gb  Fault.obj [2]
Fault__GetParameters    0x08004f9b     0xa  Code  Gb  Fault.obj [2]
Fault__GetSpecificData  0x08004fb9    0x36  Code  Gb  Fault.obj [2]
Fault__GetState         0x08004fef    0x34  Code  Gb  Fault.obj [2]
Fault__Initialize       0x08004d0d    0xc0  Code  Gb  Fault.obj [2]
Fault__IsInFaultState   0x08005023    0x26  Code  Gb  Fault.obj [2]
Fault__IsObserverActive
                        0x08005051    0x12  Code  Gb  Fault.obj [2]
Fault__IsOkToExitFaultState
                        0x08005063    0x48  Code  Gb  Fault.obj [2]
Fault__RegisterFaultEvents
                        0x080050ab     0xc  Code  Gb  Fault.obj [2]
Fault__RegisterPreFaultEvents
                        0x080050b7     0xc  Code  Gb  Fault.obj [2]
Fault__ResetAllObservers
                        0x080050c3     0x8  Code  Gb  Fault.obj [2]
Fault__SetTestEngaged   0x080050cb    0x36  Code  Gb  Fault.obj [2]
FdmCounter__ConditionDetected
                        0x08033593    0x16  Code  Gb  FdmCounter.obj [2]
FdmCounter__ConditionRemoved
                        0x080335a9     0x4  Code  Gb  FdmCounter.obj [2]
FdmCounter__Setup       0x0803357d    0x16  Code  Gb  FdmCounter.obj [2]
FdmCounter__TimePassed  0x080335ad     0x4  Code  Gb  FdmCounter.obj [2]
FdmTimer__ConditionDetected
                        0x08013113    0x12  Code  Gb  FdmTimer.obj [2]
FdmTimer__ConditionRemoved
                        0x08013125    0x3a  Code  Gb  FdmTimer.obj [2]
FdmTimer__DebounceDataSize
                        0x08013189    0x12  Code  Gb  FdmTimer.obj [2]
FdmTimer__Setup         0x080130ed    0x26  Code  Gb  FdmTimer.obj [2]
FdmTimer__TimePassed    0x0801315f    0x2a  Code  Gb  FdmTimer.obj [2]
Fdm_Timer_Max_Debounce_Array_Size
                        0x20004f2b     0x1  Data  Lc  FdmTimer.obj [2]
FeedbackLLI_Allocation  0x20004cbd     0x1  Data  Lc  FeedbackLLI.obj [2]
FeedbackLLI_Data        0x20004cac    0x10  Data  Lc  FeedbackLLI.obj [2]
FeedbackLLI__Allocate   0x08030f57    0x12  Code  Gb  FeedbackLLI.obj [2]
FeedbackLLI__AsynchProcess
                        0x08031089   0x316  Code  Gb  FeedbackLLI.obj [2]
FeedbackLLI__Get        0x08030fe7    0x20  Code  Gb  FeedbackLLI.obj [2]
FeedbackLLI__GetAcInput
                        0x08031007    0x20  Code  Gb  FeedbackLLI.obj [2]
FeedbackLLI__Initialize
                        0x08030f41    0x16  Code  Gb  FeedbackLLI.obj [2]
FeedbackLLI__InitializeInstance
                        0x08030f69    0x7e  Code  Gb  FeedbackLLI.obj [2]
FeedbackLLI__OneMsProcess
                        0x08031027    0x5a  Code  Gb  FeedbackLLI.obj [2]
FillCheckWaterSubCyclePriorty
                        0x20004aa8     0x1  Data  Lc  NormalFill.obj [2]
FillExecute             0x0800bf1f    0x5c  Code  Lc  NormalFill.obj [2]
FillInitialize          0x0800bf7b     0xc  Code  Lc  NormalFill.obj [2]
FillValveStuckONExecute
                        0x0800f4a9    0x6c  Code  Lc  FillValveStuckOn.obj [2]
FillValveStuckONInit    0x0800f1ef    0x8e  Code  Lc  FillValveStuckOn.obj [2]
FillValveStuckONInitialize
                        0x0800f515    0x10  Code  Lc  FillValveStuckOn.obj [2]
FillValveStuckON__ExitFault
                        0x0800f1b7     0x8  Code  Gb  FillValveStuckOn.obj [2]
FillValveStuckOn__Execution
                        0x0800f143    0x74  Code  Gb  FillValveStuckOn.obj [2]
FillValveStuckOn__Initialize
                        0x0800f13b     0x8  Code  Gb  FillValveStuckOn.obj [2]
FillValveStuckOn__UnexpectedPulsesDetected
                        0x0800f1bf    0x1c  Code  Gb  FillValveStuckOn.obj [2]
FillWater               0x0800eb0b    0x4c  Code  Lc  ClassAFill.obj [2]
FillWater               0x0800ef59    0x2c  Code  Lc  TankFill.obj [2]
FillWaterInitialCheck   0x0800eb57     0xc  Code  Lc  ClassAFill.obj [2]
FillWaterInitialCheck   0x0800ef85     0xc  Code  Lc  TankFill.obj [2]
Fill_Data               0x20004bf8    0x14  Data  Lc  ClassAFill.obj [2]
Fill_Fault              0x200003ef     0x1  Data  Gb  DishAuxVar.obj [2]
Fill_Flow_Rate_Calibrated
                        0x20000184     0x2  Data  Lc  Fill.obj [2]
Fill_NV_Data            0x200000e4     0x8  Data  Lc  ClassAFill.obj [2]
Fill_Nv                 0x20000270    0x10  Data  Lc  NormalFill.obj [2]
Fill_Parameters         0x20004ab8     0x4  Data  Lc  NormalFill.obj [2]
Fill_Process_Parameters
                        0x20004abc     0x4  Data  Lc  NormalFill.obj [2]
Fill_Sequence_ID        0x20000173     0x1  Data  Lc  Fill.obj [2]
Fill_Sequence_ID_Reference
                        0x20000178     0x4  Data  Lc  Fill.obj [2]
Fill_State              0x20004e49     0x1  Data  Lc  NormalFill.obj [2]
Fill_Stuck_ON_Current_Debounce_Timer
                        0x20004c18     0x2  Data  Lc  FillValveStuckOn.obj [2]
Fill_Stuck_ON_Debounce_Time
                        0x20004c14     0x2  Data  Lc  FillValveStuckOn.obj [2]
Fill_Stuck_ON_Fill_Valve_State
                        0x20004c0e     0x1  Data  Lc  FillValveStuckOn.obj [2]
Fill_Stuck_ON_Pilot_State
                        0x20004c0d     0x1  Data  Lc  FillValveStuckOn.obj [2]
Fill_Stuck_ON_Pulse_Counter
                        0x20004c1a     0x2  Data  Lc  FillValveStuckOn.obj [2]
Fill_Stuck_ON_Pulses_Detection_period
                        0x20004c16     0x2  Data  Lc  FillValveStuckOn.obj [2]
Fill_Stuck_ON_Pulses_Number
                        0x20004c0c     0x1  Data  Lc  FillValveStuckOn.obj [2]
Fill_Transitioned       0x20004e4a     0x1  Data  Lc  NormalFill.obj [2]
Fill_Valve_Fault_Max_Retry_Number
                        0x20004c0f     0x1  Data  Lc  FillValveStuckOn.obj [2]
Fill_Valve_Fault_Params
                        0x2000424c     0x4  Data  Lc  TriacCurrentMonitor.obj [2]
Fill_Valve_Fault_Retry_Counter
                        0x20004c11     0x1  Data  Lc  FillValveStuckOn.obj [2]
Fill_Valve_State        0x200048fc     0x1  Data  Lc  FlowMeterFaultMonitor.obj [2]
Fill_Valve_Stuck_ON_State
                        0x20004c12     0x1  Data  Lc  FillValveStuckOn.obj [2]
Fill_Valve_Stuck_ON_Transitioned
                        0x20004c13     0x1  Data  Lc  FillValveStuckOn.obj [2]
Fill_Valve_TON_Time     0x20004c10     0x1  Data  Lc  FillValveStuckOn.obj [2]
Fill__ClassAFillCore    0x0800b485   0x2bc  Code  Gb  Fill.obj [2]
Fill__ClassAFillCoreInit
                        0x0800b403    0x70  Code  Gb  Fill.obj [2]
Fill__ClearBitmapBit    0x0800b3e3    0x12  Code  Gb  Fill.obj [2]
Fill__ClearH2OAlarm     0x0800b3fb     0x8  Code  Gb  Fill.obj [2]
Fill__Initialize        0x0800b26d    0xb4  Code  Gb  Fill.obj [2]
Fill__Process           0x0800b321    0xb0  Code  Gb  Fill.obj [2]
Fill__ProjectUsesClassAFill
                        0x0800b3f5     0x6  Code  Gb  Fill.obj [2]
Fill__SetBitmapBit      0x0800b3d1    0x12  Code  Gb  Fill.obj [2]
Filter__Initialize      0x0801d719    0x34  Code  Gb  Filter.obj [2]
Filter__Update          0x0801d74d    0xcc  Code  Gb  Filter.obj [2]
FindConfigParameters    0x0800515d    0x5a  Code  Lc  Fault.obj [2]
FindExistingObserver    0x080051b7    0x30  Code  Lc  Fault.obj [2]
FindLoadPriority        0x0802dfc5     0x4  Code  Lc  LoadsControl.obj [2]
FindNextSlot            0x080151c3    0x10  Code  Lc  SRMain.obj [2]
First_Request           0x20004104     0x1  Data  Lc  AlternateCtrl.obj [2]
First_Reset_Timer_Handle
                        0x200049ec    0x14  Data  Lc  AutostartFactoryCycleMonitor.obj [2]
FlashFastProgramming    0x200009ad   0x140  Code  Lc  Flash.obj [2]
FlashProgramDoubleWord  0x08020ab9    0x9a  Code  Lc  Flash.obj [2]
Flash__Format           0x080209e9    0xc2  Code  Gb  Flash.obj [2]
Flash__FormatPage       0x08020aab     0xe  Code  Gb  Flash.obj [2]
Flash__Initialize       0x0802090d     0x2  Code  Gb  Flash.obj [2]
Flash__Read             0x080209ad    0x3c  Code  Gb  Flash.obj [2]
Flash__Write            0x0802090f    0x9e  Code  Gb  Flash.obj [2]
FlowMeterFaultMonitor__Execution
                        0x08023603    0xe4  Code  Gb  FlowMeterFaultMonitor.obj [2]
FlowMeterFaultMonitor__Initialize
                        0x080235e9    0x1a  Code  Gb  FlowMeterFaultMonitor.obj [2]
FlowMeterFault_Timer_Handle
                        0x20004904    0x14  Data  Lc  FlowMeterFaultMonitor.obj [2]
Flow_Meter_Fault_Params
                        0x20004900     0x4  Data  Lc  FlowMeterFaultMonitor.obj [2]
Flow_Meter_Pulses_Present
                        0x20004199     0x1  Data  Lc  DishAuxVar.obj [2]
Flow_Rate_Buffer        0x20000188    0x18  Data  Lc  Fill.obj [2]
Flow_Rate_Samples       0x20000174     0x1  Data  Lc  Fill.obj [2]
FlushPage               0x08007745    0x38  Code  Lc  NVData.obj [2]
Force_Appliance_Segment_Corruption
                        0x20000427     0x1  Data  Lc  NVData.obj [2]
Fst_TagStatusRead_Done  0x2000477f     0x1  Data  Lc  CartridgeDetectionMonitor.obj [2]
Fst_TagStatusRead_Done_Previous
                        0x20004cdc     0x1  Data  Lc  CartridgeDetectionMonitor.obj [2]
GIInitialize            0x080193f5   0x15e  Code  Lc  Hbl.obj [2]
GPIO_CLR_MASK           0x0801ebd8    0x40  Data  Gb  Gpio.obj [2]
GPIO_PORT_LIST          0x200008bc    0x18  Data  Gb  Gpio.obj [2]
GenerateFault           0x0801360d    0x3a  Code  Lc  API018Diagnostic.obj [2]
Generic_Bitmap          0x20004198     0x1  Data  Gb  DishAuxVar.obj [2]
GetAPIIndex             0x08032729    0x26  Code  Lc  API003Disc.obj [2]
GetActiveFaultObserver  0x080051e7    0x5e  Code  Lc  Fault.obj [2]
GetActivePreFaultObserver
                        0x08005245    0x48  Code  Lc  Fault.obj [2]
GetAmountToEmptyDispenser
                        0x08030d5f    0x74  Code  Lc  TridgeDetergent.obj [2]
GetAnalogValue          0x0802dcc7    0x58  Code  Lc  LoadsControl.obj [2]
GetBufferGIPtr          0x08009393    0x48  Code  Lc  API012Exp.obj [2]
GetCatchTimerIndex      0x08020391    0x4c  Code  Lc  Timer.obj [2]
GetConfigParameters     0x080052a5    0x1a  Code  Lc  Fault.obj [2]
GetCrossLoadIndex       0x08022d45    0x32  Code  Lc  CrossLoads.obj [2]
GetCycleCompletionCode  0x08006343    0x34  Code  Lc  Interpreter.obj [2]
GetDebounceParameters   0x080052c1    0x28  Code  Lc  Fault.obj [2]
GetDelay                0x08004069    0x84  Code  Lc  Supervisor.obj [2]
GetDetergentPositionByType
                        0x0800a5f9    0x2c  Code  Lc  CartridgeDetectionMonitor.obj [2]
GetDispensingTime       0x08030d39    0x26  Code  Lc  TridgeDetergent.obj [2]
GetDisplacementData     0x0801300d    0xde  Code  Lc  SettingFile.obj [2]
GetDoorOpenWakeUp       0x0802724f    0x44  Code  Lc  LowPower.obj [2]
GetDummyDataSize        0x0802efe5     0x4  Code  Lc  API005LowLevel.obj [2]
GetFirstStatement       0x08006377    0x5e  Code  Lc  Interpreter.obj [2]
GetFloatSwitchWakeUp    0x08027221    0x2e  Code  Lc  LowPower.obj [2]
GetFlowMeterWakeUp      0x08027293    0x14  Code  Lc  LowPower.obj [2]
GetGenericInputHandler  0x08018e67    0x28  Code  Lc  Hbl.obj [2]
GetLoStatement          0x08009ff1    0x3a  Code  Lc  Estimator.obj [2]
GetLoStatementIndex     0x080063d5    0x46  Code  Lc  Interpreter.obj [2]
GetLoadHandler          0x08018df1    0x48  Code  Lc  Hbl.obj [2]
GetLoadPriority         0x08022d81    0x18  Code  Lc  CrossLoads.obj [2]
GetLowLevelHandler      0x08018e99    0x2c  Code  Lc  Hbl.obj [2]
GetMMapVarsCount        0x0802d76d    0x1e  Code  Lc  API010PollVar.obj [2]
GetMaintainSfParameters
                        0x0800e36d   0x122  Code  Lc  Maintain.obj [2]
GetNextItem             0x080166e1    0x10  Code  Lc  Reveal.obj [2]
GetNextLoadIndex        0x0802dd1f    0x6c  Code  Lc  LoadsControl.obj [2]
GetNextSectionID        0x08013647    0x1e  Code  Lc  API018Diagnostic.obj [2]
GetNumberOfSteps        0x0800641b    0x4a  Code  Lc  Interpreter.obj [2]
GetOperands             0x0801baaf    0xec  Code  Lc  Condition.obj [2]
GetPilotHandler         0x08018e3d    0x2a  Code  Lc  Hbl.obj [2]
GetProgramHeadingPointer
                        0x08007e7d    0x4e  Code  Lc  Selector.obj [2]
GetPulseDeciseconds     0x0802dd8b    0x18  Code  Lc  LoadsControl.obj [2]
GetRegValue             0x0800ae9d    0xc4  Code  Lc  Regulations.obj [2]
GetRegulationTableValueType
                        0x0800af61    0x22  Code  Lc  Regulations.obj [2]
GetReleaseTime          0x08030cfd    0x3c  Code  Lc  TridgeDetergent.obj [2]
GetSecondsFromTimeEntry
                        0x0800a035    0x78  Code  Lc  Estimator.obj [2]
GetSectionAddress       0x08013665    0x4a  Code  Lc  API018Diagnostic.obj [2]
GetSectionSize          0x080136b1    0x3c  Code  Lc  API018Diagnostic.obj [2]
GetSegmentIndex         0x0802a951    0x16  Code  Lc  API007BulkData.obj [2]
GetSequenceId           0x0801dbdb     0x8  Code  Gb  OWIVoltageRegulatedOutputModel.obj [2]
GetSettingFileStartByID
                        0x08012f1d    0x66  Code  Lc  SettingFile.obj [2]
GetSettingFileStartByPosition
                        0x08012f89    0x3c  Code  Lc  SettingFile.obj [2]
GetSlotDurationSec      0x08011545    0x48  Code  Gb  MoisturePreventionMonitor.obj [2]
GetSlotSeconds          0x0801150d    0x2e  Code  Gb  MoisturePreventionMonitor.obj [2]
GetSubCycleData         0x08013861    0x12  Code  Lc  SubCycle.obj [2]
GetTarget               0x08013f85    0xea  Code  Lc  JumpIf.obj [2]
GetTaskCounterRef       0x080160ed    0x24  Code  Lc  SRTaskMonitor.obj [2]
GetUniversalValue       0x08017e2d    0x94  Code  Lc  Modifier.obj [2]
GetVariableInfo         0x0802d78b    0x56  Code  Lc  API010PollVar.obj [2]
GetVirtualPinNumber     0x08032a89    0x2a  Code  Lc  DigitalOutputPilot.obj [2]
GetVirtualPinNumber     0x08032ea9    0x2a  Code  Lc  TriacMci.obj [2]
GetWashMotorError       0x08023b5f    0x94  Code  Gb  WashMotorFaultMonitor.obj [2]
GetWinWakeUp            0x080271f5    0x2c  Code  Lc  LowPower.obj [2]
Get_DrainHBLType        0x0801db09     0xe  Code  Lc  PartialDrainProcess.obj [2]
GlitchFilter__Initialize
                        0x0802cef1    0x14  Code  Gb  GlitchFilter.obj [2]
GlitchFilter__Process   0x0802cf05    0x3c  Code  Gb  GlitchFilter.obj [2]
GoToOpenLoop            0x0802bd35   0x172  Code  Lc  MclFireAngleCtrl.obj [2]
GoToStopCheck           0x08029cc9    0x4c  Code  Lc  Mcl.obj [2]
Gpio__Initialize        0x0801ea95    0x12  Code  Gb  Gpio.obj [2]
Gpio__PinConfig         0x0801ead5    0x68  Code  Gb  Gpio.obj [2]
Gpio__PinRead           0x0801eb6d    0x24  Code  Gb  Gpio.obj [2]
Gpio__PinWrite          0x0801eb3d    0x30  Code  Gb  Gpio.obj [2]
Gpio__RefreshConfig     0x0801eaa7    0x2e  Code  Gb  Gpio.obj [2]
Gpio__Validate          0x0801eb91    0x10  Code  Gb  Gpio.obj [2]
Gws_Error               0x20004c99     0x1  Data  Lc  WashMotorFaultMonitor.obj [2]
H2O_Alarm               0x200000f0     0x1  Data  Gb  DishAuxVar.obj [2]
HBL_DIRECT_LOAD         0x0802fbe0    0x28  Data  Lc  Hbl.obj [2]
HBL_FLUSH_BUFFER        0x0802fd98     0xc  Data  Lc  Hbl.obj [2]
HBL_GI_HANDLERS         0x0802fe94   0x23c  Data  Lc  Hbl.obj [2]
HBL_LLI_HANDLERS        0x0802fda4    0xf0  Data  Lc  Hbl.obj [2]
HBL_LOAD_HANDLERS       0x0802fb6c    0x74  Data  Lc  Hbl.obj [2]
HBL_PILOT_HANDLERS      0x0802fc08   0x190  Data  Lc  Hbl.obj [2]
HBl__GetLLIIndexByID    0x08018655    0x3a  Code  Gb  Hbl.obj [2]
HCD_Avg_Heater_Current  0x20004988     0x2  Data  Lc  HeaterCalcificationDetectionMaster.obj [2]
HCD_Bitmap              0x200001bc     0x4  Data  Gb  HeaterCalcificationDetectionMonitor.obj [2]
HCD_Calcification_Level
                        0x200001b8     0x1  Data  Gb  HeaterCalcificationDetectionMonitor.obj [2]
HCD_Counters            0x200001ac     0x8  Data  Lc  HeaterCalcificationDetectionMonitor.obj [2]
HCD_Cycle_Started       0x20003ea4     0x1  Data  Lc  HeaterCalcificationDetectionMonitor.obj [2]
HCD_Enable              0x200001b9     0x1  Data  Lc  HeaterCalcificationDetectionMonitor.obj [2]
HCD_HMI_Data            0x200001b4     0x4  Data  Gb  HeaterCalcificationDetectionMonitor.obj [2]
HCD_Heater_Clicks       0x20003ebc     0x2  Data  Gb  HeaterCalcificationDetectionMonitor.obj [2]
HCD_Heater_Current_Threshold
                        0x20003ebe     0x2  Data  Lc  HeaterCalcificationDetectionMonitor.obj [2]
HCD_Heater_Energy       0x2000498a     0x2  Data  Lc  HeaterCalcificationDetectionMaster.obj [2]
HCD_Heater_Power        0x2000498c     0x2  Data  Lc  HeaterCalcificationDetectionMaster.obj [2]
HCD_Highest_CL_Without_Lockout
                        0x20003ea8     0x1  Data  Lc  HeaterCalcificationDetectionMonitor.obj [2]
HCD_Is_Active           0x20003ea5     0x1  Data  Lc  HeaterCalcificationDetectionMonitor.obj [2]
HCD_Lowest_Click_Current
                        0x20003ec2     0x2  Data  Lc  HeaterCalcificationDetectionMonitor.obj [2]
HCD_Lowest_Click_Current_Thresholds
                        0x20003eac    0x10  Data  Lc  HeaterCalcificationDetectionMonitor.obj [2]
HCD_Lowest_Click_Power  0x20003ec4     0x2  Data  Lc  HeaterCalcificationDetectionMonitor.obj [2]
HCD_Lowest_Click_Temperature
                        0x20003ec0     0x2  Data  Lc  HeaterCalcificationDetectionMonitor.obj [2]
HCD_Lowest_Lockout_Thr  0x20003ea9     0x1  Data  Lc  HeaterCalcificationDetectionMonitor.obj [2]
HCD_ModelData           0x200001c0    0x14  Data  Gb  HeaterCalcificationDetectionMonitor.obj [2]
HCD_Monitor             0x08025225   0x2e6  Code  Gb  HCD_Monitor.obj [2]
HCD_Monitor_CalculatePower
                        0x08025059    0x56  Code  Lc  HCD_Monitor.obj [2]
HCD_Monitor_HeaterEnergy
                        0x080250af    0x74  Code  Lc  HCD_Monitor.obj [2]
HCD_Monitor_MeanCurrent
                        0x08025123    0xa6  Code  Lc  HCD_Monitor.obj [2]
HCD_Monitor_ReductionCheck
                        0x080251c9    0x52  Code  Lc  HCD_Monitor.obj [2]
HCD_Monitoring_States   0x200001d4     0x1  Data  Lc  HeaterCalcificationDetectionMonitor.obj [2]
HCD_Reduction_Current   0x20003ec8     0x2  Data  Lc  HeaterCalcificationDetectionMonitor.obj [2]
HCD_Reduction_Current_Thresholds
                        0x20003ecc    0x10  Data  Lc  HeaterCalcificationDetectionMonitor.obj [2]
HCD_Reduction_Power     0x20003eca     0x2  Data  Lc  HeaterCalcificationDetectionMonitor.obj [2]
HCD_Reduction_Temperature
                        0x20003ec6     0x2  Data  Lc  HeaterCalcificationDetectionMonitor.obj [2]
HCD_Unstable_Clicks     0x2000498e     0x2  Data  Lc  HeaterCalcificationDetectionMaster.obj [2]
HCD_WHS_Increased_By    0x200001ba     0x1  Data  Lc  HeaterCalcificationDetectionMonitor.obj [2]
HCD_Water_Stable        0x20004987     0x1  Data  Lc  HeaterCalcificationDetectionMaster.obj [2]
HHP_Can_Start           0x20004a92     0x1  Data  Lc  HotHighPotMonitor.obj [2]
HHP_Door_Check          0x200002e5     0x1  Data  Gb  DishAuxVar.obj [2]
HHP_HotHighPot_Infinity
                        0x20000424     0x1  Data  Lc  HotHighPotMonitor.obj [2]
HHP_Read_Setting_file_params
                        0x20000423     0x1  Data  Lc  HotHighPotMonitor.obj [2]
HHP_Remaining_Events    0x20000425     0x1  Data  Lc  HotHighPotMonitor.obj [2]
HHP_Time                0x20000426     0x1  Data  Lc  HotHighPotMonitor.obj [2]
HMI_DATA_HOLDER         0x080336b8     0x8  Data  Lc  Variable.obj [2]
HandleRequestedSubMode  0x080094df    0x30  Code  Lc  Mode.obj [2]
Handle_Counter          0x20004f10     0x4  Data  Lc  SystemTimers.obj [2]
Handle_Reference        0x20004f0c     0x1  Data  Lc  SystemTimers.obj [2]
HblCommon__ConvertIODeviceData
                        0x0802305d    0x62  Code  Gb  HblCommon.obj [2]
HblGetGIConvertedDataSizeByIndex
                        0x0802f13b     0x4  Code  Lc  API005LowLevel.obj [2]
Hbl_GI_Cfg              0x20003af4    0xa0  Data  Lc  Hbl.obj [2]
Hbl_GI_Cfg_Crc          0x20004c34    0x14  Data  Lc  Hbl.obj [2]
Hbl_GI_Exp_Last_Seq_ID  0x20004c48    0x14  Data  Gb  Hbl.obj [2]
Hbl_GI_Sequence         0x20004c20    0x14  Data  Lc  Hbl.obj [2]
Hbl_Is_Load_Queue_Running
                        0x2000491a     0x1  Data  Lc  Hbl.obj [2]
Hbl_Keep_Loads_Off      0x20004918     0x1  Data  Lc  Hbl.obj [2]
Hbl_LLI_Cfg             0x20003278   0x134  Data  Lc  Hbl.obj [2]
Hbl_LLI_Cfg_Crc         0x20003a2c    0x18  Data  Lc  Hbl.obj [2]
Hbl_LLI_ICProcess_List  0x20003a24     0x4  Data  Lc  Hbl.obj [2]
Hbl_LLI_Sequence        0x20003a44    0x18  Data  Lc  Hbl.obj [2]
Hbl_Load_Cfg            0x200026d4   0x2a0  Data  Lc  Hbl.obj [2]
Hbl_Load_Cfg_Crc        0x20004a48    0x18  Data  Lc  Hbl.obj [2]
Hbl_Load_Consistency    0x20004a60    0x18  Data  Lc  Hbl.obj [2]
Hbl_Load_Consistency_LLI_SeqID
                        0x20004678    0x30  Data  Lc  Hbl.obj [2]
Hbl_Load_Current_Priority
                        0x2000491c    0x18  Data  Lc  Hbl.obj [2]
Hbl_Load_Requests_Progress
                        0x20004919     0x1  Data  Lc  Hbl.obj [2]
Hbl_Num_ICProcess_LLI   0x20003a2a     0x1  Data  Lc  Hbl.obj [2]
Hbl_Num_Loads           0x20003a28     0x1  Data  Lc  Hbl.obj [2]
Hbl_Number_GI           0x20003a2b     0x1  Data  Lc  Hbl.obj [2]
Hbl_Number_LLI          0x20003a29     0x1  Data  Lc  Hbl.obj [2]
Hbl_ZC_Virtual_Pin      0x20004f33     0x1  Data  Lc  Hbl.obj [2]
Hbl__AsynchHandler      0x08018055   0x1b0  Code  Gb  Hbl.obj [2]
Hbl__ExtIntHandler      0x08018205     0x2  Code  Gb  Hbl.obj [2]
Hbl__FastHandler        0x08018207    0x16  Code  Gb  Hbl.obj [2]
Hbl__FlushRequestBuffer
                        0x080182c9    0x22  Code  Gb  Hbl.obj [2]
Hbl__GetFlushBuffer     0x080182bf     0x4  Code  Gb  Hbl.obj [2]
Hbl__GetGIDataByID      0x080188f5     0xc  Code  Gb  Hbl.obj [2]
Hbl__GetGIDataByIndex   0x080187fb    0x66  Code  Gb  Hbl.obj [2]
Hbl__GetGIDataByIndex{1}{2}{3}{4}{5}{6}{7}{8}::data_index
                        0x20004cfc     0x1  Data  Lc  Hbl.obj [2]
Hbl__GetGIDataByIndex{1}{2}{3}{4}{5}{6}{7}{8}::data_value
                        0x20004d00     0xc  Data  Lc  Hbl.obj [2]
Hbl__GetGIDataConvertedByIndex
                        0x08018869    0x8c  Code  Gb  Hbl.obj [2]
Hbl__GetGIIDByIndex     0x0801868f    0x18  Code  Gb  Hbl.obj [2]
Hbl__GetGIIndexByGIID   0x080186a7    0x2e  Code  Gb  Hbl.obj [2]
Hbl__GetGISequenceIDByIndex
                        0x08018901    0x14  Code  Gb  Hbl.obj [2]
Hbl__GetLLIDataByIndex  0x080187c1    0x3a  Code  Gb  Hbl.obj [2]
Hbl__GetLLIDataSizeByIndex
                        0x0801876f    0x2e  Code  Gb  Hbl.obj [2]
Hbl__GetLLIIndexByGIIndex
                        0x08018715    0x18  Code  Gb  Hbl.obj [2]
Hbl__GetLLIPositionByGIIndex
                        0x08018743    0x2c  Code  Gb  Hbl.obj [2]
Hbl__GetLLIPositionByIndex
                        0x080186f1    0x20  Code  Gb  Hbl.obj [2]
Hbl__GetLLISequenceIDByIndex
                        0x0801879d    0x1a  Code  Gb  Hbl.obj [2]
Hbl__GetLLITypeByGIIndex
                        0x0801872d    0x16  Code  Gb  Hbl.obj [2]
Hbl__GetLLITypeByIndex  0x080186d5    0x1c  Code  Gb  Hbl.obj [2]
Hbl__GetLoadConsistency
                        0x080185bd    0x14  Code  Gb  Hbl.obj [2]
Hbl__GetLoadDataSize    0x08018489    0x3e  Code  Gb  Hbl.obj [2]
Hbl__GetLoadIDByIndex   0x08018331    0x1c  Code  Gb  Hbl.obj [2]
Hbl__GetLoadIndexByLoadID
                        0x080182f9    0x32  Code  Gb  Hbl.obj [2]
Hbl__GetLoadStatusByIndex
                        0x080183cd    0xa4  Code  Gb  Hbl.obj [2]
Hbl__GetLoadStatusByLoadID
                        0x08018471     0xc  Code  Gb  Hbl.obj [2]
Hbl__GetNumGI           0x08018649     0x6  Code  Gb  Hbl.obj [2]
Hbl__GetNumLLI          0x0801864f     0x6  Code  Gb  Hbl.obj [2]
Hbl__GetNumLoads        0x080182eb     0x6  Code  Gb  Hbl.obj [2]
Hbl__GetOwnLoadConsistency
                        0x080185d1    0x3a  Code  Gb  Hbl.obj [2]
Hbl__GetPilotIDByIndex  0x08018355    0x1c  Code  Gb  Hbl.obj [2]
Hbl__GetProcessedLoad   0x08018541    0x76  Code  Gb  Hbl.obj [2]
Hbl__GetRequestedLoad   0x080184cd    0x6a  Code  Gb  Hbl.obj [2]
Hbl__Handler1ms         0x08017fa3    0xae  Code  Gb  Hbl.obj [2]
Hbl__ICIntHandler       0x08018233    0x8c  Code  Gb  Hbl.obj [2]
Hbl__Initialize         0x08017f25    0x6e  Code  Gb  Hbl.obj [2]
Hbl__IsZeroCrossPresent
                        0x08017f93    0x10  Code  Gb  Hbl.obj [2]
Hbl__KeepLoadsOff       0x0801860b    0x32  Code  Gb  Hbl.obj [2]
Hbl__OCIntHandler       0x08018231     0x2  Code  Gb  Hbl.obj [2]
Hbl__SetLoadRequestByIndex
                        0x08018375    0x3c  Code  Gb  Hbl.obj [2]
Hbl__SetLoadRequestByLoadID
                        0x080183b9    0x14  Code  Gb  Hbl.obj [2]
Heat                    0x200001a0     0x8  Data  Lc  Heat.obj [2]
HeatExecute             0x080119f5    0x52  Code  Lc  Heat.obj [2]
HeatInitialize          0x08011a47    0x20  Code  Lc  Heat.obj [2]
HeatMonitor__Execution  0x08023ff3   0x134  Code  Gb  HeatMonitor.obj [2]
HeatMonitor__Initialize
                        0x08023f45    0xae  Code  Gb  HeatMonitor.obj [2]
HeatMonitor__IsHeaterAllowed
                        0x0802412d     0x6  Code  Gb  HeatMonitor.obj [2]
HeatMonitor__IsHeaterRequested
                        0x08024127     0x6  Code  Gb  HeatMonitor.obj [2]
HeatMonitor__IsHeaterVWIAllowed
                        0x08024133     0x6  Code  Gb  HeatMonitor.obj [2]
HeatTerminate           0x08011a67     0xc  Code  Lc  Heat.obj [2]
Heat_Monitor_Data       0x20004a78    0x10  Data  Lc  HeatMonitor.obj [2]
Heat_Process_Initialized
                        0x20004dc9     0x1  Data  Lc  Heat.obj [2]
Heat_Ready_To_Exit      0x20004dc7     0x1  Data  Lc  Heat.obj [2]
Heat_Remaining_Time     0x200001aa     0x2  Data  Lc  Heat.obj [2]
Heat_State              0x20004dc4     0x1  Data  Lc  Heat.obj [2]
Heat_Transitioned       0x20004dc5     0x1  Data  Lc  Heat.obj [2]
Heat__Initialize        0x08011639    0x28  Code  Gb  Heat.obj [2]
Heat__Process           0x08011661    0x88  Code  Gb  Heat.obj [2]
Heat__ResetHeatTimeoutFault
                        0x080116e9     0xa  Code  Gb  Heat.obj [2]
HeaterCalcificationDetectionMaster__Execute
                        0x0801b115    0xf4  Code  Gb  HeaterCalcificationDetectionMaster.obj [2]
HeaterCalcificationDetectionMaster__Initialize
                        0x0801b20d     0x8  Code  Gb  HeaterCalcificationDetectionMaster.obj [2]
HeaterCalcificationDetectionModelSetup
                        0x0800c7cd    0x12  Code  Lc  HeaterCalcificationDetectionMonitor.obj [2]
HeaterCalcificationDetectionMonitor__CycleEnded
                        0x0800c4b5   0x302  Code  Gb  HeaterCalcificationDetectionMonitor.obj [2]
HeaterCalcificationDetectionMonitor__CycleStarted
                        0x0800c491    0x18  Code  Gb  HeaterCalcificationDetectionMonitor.obj [2]
HeaterCalcificationDetectionMonitor__Execution
                        0x0800c3f1    0x74  Code  Gb  HeaterCalcificationDetectionMonitor.obj [2]
HeaterCalcificationDetectionMonitor__GetHeaterClicks
                        0x0800c241     0x6  Code  Gb  HeaterCalcificationDetectionMonitor.obj [2]
HeaterCalcificationDetectionMonitor__GetLockoutStatus
                        0x0800c7bd    0x10  Code  Gb  HeaterCalcificationDetectionMonitor.obj [2]
HeaterCalcificationDetectionMonitor__Initialize
                        0x0800c24d   0x1a4  Code  Gb  HeaterCalcificationDetectionMonitor.obj [2]
HeaterCalcificationDetectionMonitor__Reset
                        0x0800c47d    0x14  Code  Gb  HeaterCalcificationDetectionMonitor.obj [2]
HeaterCalcificationDetectionMonitor__SetHeaterClicks
                        0x0800c247     0x6  Code  Gb  HeaterCalcificationDetectionMonitor.obj [2]
HeaterCalcificationDetectionMonitor__Start
                        0x0800c465    0x10  Code  Gb  HeaterCalcificationDetectionMonitor.obj [2]
HeaterCalcificationDetectionMonitor__Stop
                        0x0800c475     0x8  Code  Gb  HeaterCalcificationDetectionMonitor.obj [2]
HeaterCalcificationDetection_ObservableStates
                        0x20003eec    0x18  Data  Lc  HeaterCalcificationDetectionMonitor.obj [2]
HeaterCalcificationDetection_RTModelData_
                        0x20003ee8     0x4  Data  Lc  HeaterCalcificationDetectionMonitor.obj [2]
HeaterIsOn              0x08010e5b    0x10  Code  Lc  HeaterShadowing.obj [2]
HeaterLeakageMonitorExecute
                        0x0801c8b9    0x26  Code  Lc  HeaterLeakageMonitor.obj [2]
HeaterLeakageMonitorInitialize
                        0x0801c8df     0xe  Code  Lc  HeaterLeakageMonitor.obj [2]
HeaterLeakageMonitor__Execution
                        0x0801c77d     0x8  Code  Gb  HeaterLeakageMonitor.obj [2]
HeaterLeakageMonitor__ExitFault
                        0x0801c785     0x8  Code  Gb  HeaterLeakageMonitor.obj [2]
HeaterLeakageMonitor__Initialize
                        0x0801c775     0x8  Code  Gb  HeaterLeakageMonitor.obj [2]
HeaterLineRelayOpenMonitor__Execution
                        0x0801c615     0x8  Code  Gb  HeaterLineRelayOpenMonitor.obj [2]
HeaterLineRelayOpenMonitor__ExitFault
                        0x0801c61d     0x8  Code  Gb  HeaterLineRelayOpenMonitor.obj [2]
HeaterLineRelayOpenMonitor__Initialize
                        0x0801c60d     0x8  Code  Gb  HeaterLineRelayOpenMonitor.obj [2]
HeaterLoad_Allocation   0x20004d98     0x1  Data  Lc  HeaterLoad.obj [2]
HeaterLoad_Data         0x20004d8c     0xc  Data  Lc  HeaterLoad.obj [2]
HeaterLoad__Allocate    0x08029477    0x12  Code  Gb  HeaterLoad.obj [2]
HeaterLoad__AsyncProcess
                        0x080295ab    0xb2  Code  Gb  HeaterLoad.obj [2]
HeaterLoad__GetInvertedSequenceStatusByLoadId
                        0x0802967d    0x2c  Code  Gb  HeaterLoad.obj [2]
HeaterLoad__GetProcessed
                        0x0802958b    0x20  Code  Gb  HeaterLoad.obj [2]
HeaterLoad__GetRequested
                        0x0802956b    0x20  Code  Gb  HeaterLoad.obj [2]
HeaterLoad__GetStatus   0x0802965d    0x20  Code  Gb  HeaterLoad.obj [2]
HeaterLoad__Initialize  0x08029465    0x12  Code  Gb  HeaterLoad.obj [2]
HeaterLoad__InitializeInstance
                        0x08029489    0x3c  Code  Gb  HeaterLoad.obj [2]
HeaterLoad__Process     0x080294e9    0x82  Code  Gb  HeaterLoad.obj [2]
HeaterLoad__Request     0x080294c5    0x24  Code  Gb  HeaterLoad.obj [2]
HeaterNeutralRelayOpenMonitor__Execution
                        0x0801c445     0x8  Code  Gb  HeaterNeutralRelayOpenMonitor.obj [2]
HeaterNeutralRelayOpenMonitor__ExitFault
                        0x0801c44d     0xe  Code  Gb  HeaterNeutralRelayOpenMonitor.obj [2]
HeaterNeutralRelayOpenMonitor__GetHeaterOpenDetected
                        0x0801c45b     0x6  Code  Gb  HeaterNeutralRelayOpenMonitor.obj [2]
HeaterNeutralRelayOpenMonitor__Initialize
                        0x0801c43d     0x8  Code  Gb  HeaterNeutralRelayOpenMonitor.obj [2]
HeaterOffDo             0x08010c6d    0x12  Code  Lc  HeaterShadowing.obj [2]
HeaterOffEntry          0x08010c65     0x8  Code  Lc  HeaterShadowing.obj [2]
HeaterOpenAndLineRelayClosedMonitorExecute
                        0x0801cbdd    0x26  Code  Lc  HeaterOpenAndLineRelayClosedMonitor.obj [2]
HeaterOpenAndLineRelayClosedMonitorInitialize
                        0x0801cc03     0xe  Code  Lc  HeaterOpenAndLineRelayClosedMonitor.obj [2]
HeaterOpenAndLineRelayClosedMonitor__Execution
                        0x0801ca81     0x8  Code  Gb  HeaterOpenAndLineRelayClosedMonitor.obj [2]
HeaterOpenAndLineRelayClosedMonitor__ExitFault
                        0x0801ca89     0x8  Code  Gb  HeaterOpenAndLineRelayClosedMonitor.obj [2]
HeaterOpenAndLineRelayClosedMonitor__Initialize
                        0x0801ca79     0x8  Code  Gb  HeaterOpenAndLineRelayClosedMonitor.obj [2]
HeaterOpenMonitorExecute
                        0x0801ca3f    0x26  Code  Lc  HeaterOpenMonitor.obj [2]
HeaterOpenMonitorInitialize
                        0x0801ca65     0xe  Code  Lc  HeaterOpenMonitor.obj [2]
HeaterOpenMonitor__Execution
                        0x0801c8f9     0x8  Code  Gb  HeaterOpenMonitor.obj [2]
HeaterOpenMonitor__ExitFault
                        0x0801c901     0x8  Code  Gb  HeaterOpenMonitor.obj [2]
HeaterOpenMonitor__Initialize
                        0x0801c8f1     0x8  Code  Gb  HeaterOpenMonitor.obj [2]
HeaterShadowingExecute  0x08010fd9    0x3e  Code  Lc  HeaterShadowing.obj [2]
HeaterShadowingInitialize
                        0x08011017     0xe  Code  Lc  HeaterShadowing.obj [2]
HeaterShadowingTerminate
                        0x08011025     0x8  Code  Lc  HeaterShadowing.obj [2]
HeaterShadowing_Status  0x20004f8e     0x1  Data  Gb  HeaterShadowing.obj [2]
HeaterShadowing__CycleResumeEnd
                        0x08010a77    0x16  Code  Gb  HeaterShadowing.obj [2]
HeaterShadowing__Initialize
                        0x08010a2d     0xa  Code  Gb  HeaterShadowing.obj [2]
HeaterShadowing__NVDataRestore
                        0x08010a4b     0x8  Code  Gb  HeaterShadowing.obj [2]
HeaterShadowing__ResumeCycle
                        0x08010a6f     0x8  Code  Gb  HeaterShadowing.obj [2]
HeaterShadowing__StatusInitialize
                        0x08010a5f    0x10  Code  Gb  HeaterShadowing.obj [2]
HeaterShadowing__Task   0x08010a37    0x14  Code  Gb  HeaterShadowing.obj [2]
HeaterShadowing__Terminate
                        0x08010a53     0xc  Code  Gb  HeaterShadowing.obj [2]
Heater_Allowed          0x20004a89     0x1  Data  Lc  HeatMonitor.obj [2]
Heater_Circuit_OK       0x20004986     0x1  Data  Lc  HeaterCalcificationDetectionMaster.obj [2]
Heater_Disabled_Bitmap  0x2000042f     0x1  Data  Lc  WashHeaterFaultMonitor.obj [2]
Heater_Fault_Stabilization_Counter
                        0x20000981     0x1  Data  Lc  WashHeaterFaultMonitor.obj [2]
Heater_Leakage_Monitor_State
                        0x20004f87     0x1  Data  Lc  HeaterLeakageMonitor.obj [2]
Heater_Open_And_Line_Relay_Closed_Monitor_State
                        0x20004f8b     0x1  Data  Lc  HeaterOpenAndLineRelayClosedMonitor.obj [2]
Heater_Open_Detected    0x20004f8a     0x1  Data  Lc  HeaterNeutralRelayOpenMonitor.obj [2]
Heater_Open_Monitor_State
                        0x20004f8c     0x1  Data  Lc  HeaterOpenMonitor.obj [2]
Heater_Request          0x20004dc8     0x1  Data  Lc  Heat.obj [2]
Heater_Requested        0x20004a88     0x1  Data  Lc  HeatMonitor.obj [2]
Heater_Sensing_Paramters_Ptr
                        0x20003ee4     0x4  Data  Lc  HeaterCalcificationDetectionMonitor.obj [2]
Heater_Sensing_Paramters_Ptr
                        0x20000988     0x4  Data  Lc  WashHeaterFaultMonitor.obj [2]
Heater_Shadowing_Data   0x20004540    0x38  Data  Lc  HeaterShadowing.obj [2]
Heater_Shadowing_State  0x20004f8d     0x1  Data  Lc  HeaterShadowing.obj [2]
Heater_VWI_Allowed      0x20004a8a     0x1  Data  Lc  HeatMonitor.obj [2]
HoldDo                  0x08010c53    0x12  Code  Lc  HeaterShadowing.obj [2]
HoldEntry               0x08010c2d    0x26  Code  Lc  HeaterShadowing.obj [2]
HotHighPotDone          0x20004a91     0x1  Data  Lc  HotHighPotMonitor.obj [2]
HotHighPotMonitor__Execution
                        0x0801b01f    0xde  Code  Gb  HotHighPotMonitor.obj [2]
HotHighPotMonitor__GetHotHighPotDone
                        0x0801b0fd     0x6  Code  Gb  HotHighPotMonitor.obj [2]
HotHighPotMonitor__Initialize
                        0x0801af69    0xb6  Code  Gb  HotHighPotMonitor.obj [2]
IAP_SIZE {Abs}          0x00003000          Data  Gb  command line/config [3]
IAP_WPART_NUMBER {Abs}  0x08002ff0          Data  Gb  command line/config [3]
IDLE_STATE              0x0801cf21    0x3e  Code  Lc  SensedDrainModel.obj [2]
IIRFilter               0x08025019    0x1c  Code  Gb  IIRFilter.obj [2]
IIRFilterLong           0x08025035    0x1a  Code  Gb  IIRFilter.obj [2]
IIR_Prev_Active_Power   0x200047b2     0x2  Data  Lc  MclObserver.obj [2]
IIR_Prev_Bemf           0x200047c4     0x4  Data  Lc  MclObserver.obj [2]
IIR_Prev_Bemf_2         0x200047c8     0x4  Data  Lc  MclObserver.obj [2]
IIR_Prev_Curr_Offset    0x20004608     0x4  Data  Lc  MclFireAngleCtrl.obj [2]
IIR_Prev_Semi_Period    0x20004ea8     0x4  Data  Lc  MclZeroCross.obj [2]
IIR_Prev_Volt           0x200047b4     0x2  Data  Lc  MclObserver.obj [2]
IIR_Prev_Volt_Offset    0x2000460c     0x4  Data  Lc  MclFireAngleCtrl.obj [2]
INTERRUPT_STACK$$Base   0x20023fbc           --   Gb  - Linker created -
INTERRUPT_STACK$$Limit  0x20023fbc           --   Gb  - Linker created -
IS_DATA_TYPE_WORD_MAP   0x080230c4     0x4  Data  Lc  HblCommon.obj [2]
IfActionSubsystem2      0x0801dbd9     0x2  Code  Gb  OWIVoltageRegulatedOutputModel.obj [2]
IncrementProfileLedStep
                        0x080248c1    0x42  Code  Lc  StatusLed.obj [2]
InitSamplesAcquisition  0x0800cea5    0x26  Code  Lc  OwiVroRead.obj [2]
Initial_Pulse_Current_Max
                        0x200045fe     0x2  Data  Lc  MclFireAngleCtrl.obj [2]
Initial_Pulse_Current_Meas
                        0x20004610     0x4  Data  Lc  MclFireAngleCtrl.obj [2]
Initial_Pulse_Current_Min
                        0x20004600     0x2  Data  Lc  MclFireAngleCtrl.obj [2]
Initial_Pulse_Voltag_Acc
                        0x20004602     0x2  Data  Lc  MclFireAngleCtrl.obj [2]
Initialize              0x0801dbe3   0x1b8  Code  Gb  OWIVoltageRegulatedOutputModel.obj [2]
InitializeClassAFillVariables
                        0x0800eb01     0xa  Code  Lc  ClassAFill.obj [2]
InitializeDo            0x0801a299    0xa8  Code  Lc  Regenerate.obj [2]
InitializeEntry         0x08010b53    0xda  Code  Lc  HeaterShadowing.obj [2]
InitializeModule        0x0801c82b    0x18  Code  Lc  HeaterLeakageMonitor.obj [2]
InitializeModule        0x0801c6b3    0x18  Code  Lc  HeaterLineRelayOpenMonitor.obj [2]
InitializeModule        0x0801c53d    0x1e  Code  Lc  HeaterNeutralRelayOpenMonitor.obj [2]
InitializeModule        0x0801cb4f    0x18  Code  Lc  HeaterOpenAndLineRelayClosedMonitor.obj [2]
InitializeModule        0x0801c9b1    0x18  Code  Lc  HeaterOpenMonitor.obj [2]
InitializeModule        0x0801ccad    0x18  Code  Lc  PilotRelayStuckClosedMonitor.obj [2]
InitializeModule        0x0801ce0d    0x18  Code  Lc  PilotRelayStuckOpenMonitor.obj [2]
InitializeModule        0x08024903    0x10  Code  Lc  StatusLed.obj [2]
InitializeModule        0x0800f811   0x1ec  Code  Lc  TriacCurrentMonitor.obj [2]
InitializeModule        0x080242f9    0x86  Code  Lc  TriacShortedDrainFaultMonitor.obj [2]
InitializePtr           0x080331b5    0x36  Code  Lc  DefaultPin.obj [2]
InitializeTankFillVariables
                        0x0800eeff    0x5a  Code  Lc  TankFill.obj [2]
Instability_Counter     0x20004bc8     0x2  Data  Lc  StabilityControl.obj [2]
Instability_Event       0x20004bc6     0x1  Data  Lc  StabilityControl.obj [2]
Instance_Parameters_Ptr
                        0x20000384     0x4  Data  Lc  StabilityControl.obj [2]
IntMgr__ExtInterruptExt
                        0x08031e39    0x60  Code  Gb  IntMgr.obj [2]
IntMgr__Timer1IrqHandler
                        0x08031e99    0x98  Code  Gb  IntMgr.obj [2]
IntMgr__Timer3_4IrqHandler
                        0x08031f31   0x114  Code  Gb  IntMgr.obj [2]
IntegrateVwiSignal      0x08025afb    0x5e  Code  Lc  PartialDrainModel.obj [2]
Interpreter_Data        0x200001d8     0xc  Data  Lc  Interpreter.obj [2]
Interpreter_Result      0x200003c4     0x1  Data  Lc  Supervisor.obj [2]
Interpreter_Status      0x200001e4     0x8  Data  Gb  Interpreter.obj [2]
Interpreter__ClearSubCycleStatus
                        0x08005851    0x24  Code  Gb  Interpreter.obj [2]
Interpreter__Configure  0x08005875    0x6c  Code  Gb  Interpreter.obj [2]
Interpreter__GetCurrentSFIndex
                        0x080058e1    0x1c  Code  Gb  Interpreter.obj [2]
Interpreter__GetCurrentStatement
                        0x080058fd    0x2e  Code  Gb  Interpreter.obj [2]
Interpreter__GetRunTimeData
                        0x08005931   0x10a  Code  Gb  Interpreter.obj [2]
Interpreter__GetStatus  0x08005a3b     0xc  Code  Gb  Interpreter.obj [2]
Interpreter__Initialize
                        0x08005739    0xd6  Code  Gb  Interpreter.obj [2]
Interpreter__IsSubCycleRunning
                        0x08005a47    0x12  Code  Gb  Interpreter.obj [2]
Interpreter__RestoreFromPauseResumeData
                        0x08005a69    0x52  Code  Gb  Interpreter.obj [2]
Interpreter__Resume     0x08005abb    0x26  Code  Gb  Interpreter.obj [2]
Interpreter__Run        0x08005af1   0x3ba  Code  Gb  Interpreter.obj [2]
Interpreter__SavePauseResumeData
                        0x08005eab    0x40  Code  Gb  Interpreter.obj [2]
Interpreter__SetPhase   0x08005ef5    0x92  Code  Gb  Interpreter.obj [2]
Interpreter__SetStep    0x08005f8d    0xb0  Code  Gb  Interpreter.obj [2]
Interpreter__TerminateSubCycle
                        0x08006041    0xe0  Code  Gb  Interpreter.obj [2]
Interrupt_Monitor_Data  0x20004d60     0xc  Data  Lc  TimingAnalysis.obj [2]
Inverted_Sequence_Status_Ptr
                        0x20004a8c     0x4  Data  Lc  HeatMonitor.obj [2]
IsCancelCycleEnabled    0x080045b7    0x1a  Code  Lc  Supervisor.obj [2]
IsCancellingToFaultEnabled
                        0x080045d1     0x4  Code  Lc  Supervisor.obj [2]
IsCrossLoadTransition   0x08022cc9    0x36  Code  Lc  CrossLoads.obj [2]
IsInFaultState          0x08023c03    0x16  Code  Gb  WashMotorFaultMonitor.obj [2]
IsLoadOn                0x0801bee9    0x56  Code  Lc  TriacVoltageMonitor.obj [2]
IsLoadStatusOnTransition
                        0x08022cad    0x1c  Code  Lc  CrossLoads.obj [2]
IsMessageBlocked        0x0801663b    0x30  Code  Lc  Reveal.obj [2]
IsMicroPowerUpTimerExpired
                        0x080247e9     0xc  Code  Lc  StatusLed.obj [2]
IsMonitorEnabled        0x080246c1    0x58  Code  Lc  VoltageRangeMonitor.obj [2]
IsMotorRotate           0x0801a9cf    0x34  Code  Gb  Vwi.obj [2]
IsOnChangeDataDue       0x0802d7e1     0x4  Code  Lc  API010PollVar.obj [2]
IsOverfillOpen          0x0802a5bd    0x28  Code  Gb  StandbyManager.obj [2]
IsPendingMessage        0x0801666b    0x5e  Code  Lc  Reveal.obj [2]
IsReqSubModeError       0x0800951f    0x10  Code  Lc  Mode.obj [2]
IsReqSubModeInitialize  0x0800952f     0xc  Code  Lc  Mode.obj [2]
IsTaskStackInOneFreeSlot
                        0x08015299    0x50  Code  Lc  SRMain.obj [2]
IsThisNewFirmwareOrSettingFile
                        0x08007959    0x26  Code  Lc  NVData.obj [2]
IsVWIRequestingHeaterOff
                        0x08024139    0x3e  Code  Lc  HeatMonitor.obj [2]
IsWashPumpRequestingHeaterOff
                        0x08024177    0x32  Code  Lc  HeatMonitor.obj [2]
Is_Settingfile_Valid    0x20004e24     0x1  Data  Lc  SettingFile.obj [2]
Is_WashMotor_Rotating   0x08023bf3    0x10  Code  Gb  WashMotorFaultMonitor.obj [2]
Isr_Attempt_Cntr        0x20004ba7     0x1  Data  Lc  SRIsrMonitor.obj [2]
Isr_BootUp_Skip_Count   0x20004ba5     0x1  Data  Lc  SRIsrMonitor.obj [2]
Isr_Clear_Stats         0x20004ba6     0x1  Data  Lc  SRIsrMonitor.obj [2]
Isr_Enter_Cntr          0x20004ba2     0x1  Data  Lc  SRIsrMonitor.obj [2]
Isr_Exit_Cntr           0x20004ba3     0x1  Data  Lc  SRIsrMonitor.obj [2]
Isr_LowSpeed_Mode       0x20004ba4     0x1  Data  Lc  SRIsrMonitor.obj [2]
Isr_Max                 0x20004ba0     0x1  Data  Lc  SRIsrMonitor.obj [2]
Isr_Min                 0x20004ba1     0x1  Data  Lc  SRIsrMonitor.obj [2]
Isr_Statistics          0x20004b98     0x8  Data  Lc  SRIsrMonitor.obj [2]
Itp_Phase_Data          0x20004d0c     0xc  Data  Lc  Interpreter.obj [2]
JumpIf__Estimate        0x08013e99    0x74  Code  Gb  JumpIf.obj [2]
JumpIf__GetTarget       0x08013f0d    0x32  Code  Gb  JumpIf.obj [2]
JumpIf__Process         0x08013f3f    0x46  Code  Gb  JumpIf.obj [2]
KeepLoadsOffHandler     0x0801993d    0xca  Code  Gb  Hbl.obj [2]
KeepLoadsOffInitialize  0x08019917    0x20  Code  Gb  Hbl.obj [2]
Kosher_Position         0x200049ae     0x1  Data  Lc  MoisturePreventionMonitor.obj [2]
LITTMonitor__Execution  0x0802322d   0x152  Code  Gb  LITTMonitor.obj [2]
LITTMonitor__GetLITTStatus
                        0x0802337f     0x6  Code  Gb  LITTMonitor.obj [2]
LITTMonitor__Initialize
                        0x080231c9    0x64  Code  Gb  LITTMonitor.obj [2]
LITTMonitor__RestartLITTTimer
                        0x08023385    0x22  Code  Gb  LITTMonitor.obj [2]
LITT_Fault_Params       0x20004838     0x4  Data  Lc  DCLoadCurrentMonitor.obj [2]
LLIInitialize           0x080191ad   0x242  Code  Lc  Hbl.obj [2]
LM_Cycle_State_Old      0x20004e9c     0x1  Data  Lc  LITTMonitor.obj [2]
LM_LITT_Max_Timer       0x20004ea0     0x4  Data  Lc  LITTMonitor.obj [2]
LM_LITT_Status          0x20004e9d     0x1  Data  Lc  LITTMonitor.obj [2]
LO_STATEMENT_DATA_INDEX_LENGTH_HARD_CODED
                        0x08007ee4     0x2  Data  Gb  Selector.obj [2]
LP_Door_Closed_Old      0x200048d1     0x1  Data  Lc  LowPower.obj [2]
LP_Door_Open_Wake_Up_Enable
                        0x200048d2     0x1  Data  Lc  LowPower.obj [2]
Last_Analog_Output      0x20003944    0x2c  Data  Lc  APIMotorControl.obj [2]
Last_Digital_Output     0x20003929     0x1  Data  Lc  APIMotorControl.obj [2]
Last_Event              0x20004e3d     0x1  Data  Gb  MciZeroCross.obj [2]
Last_Manual_Injection_Level_Target
                        0x2000393c     0x4  Data  Lc  APIMotorControl.obj [2]
Last_Manual_Injection_Method
                        0x20003928     0x1  Data  Lc  APIMotorControl.obj [2]
Last_Manual_Injection_Parameter
                        0x20003940     0x4  Data  Lc  APIMotorControl.obj [2]
Last_Ramp_Target        0x20003938     0x4  Data  Lc  APIMotorControl.obj [2]
Last_Rinse_Aid_Status   0x20000428     0x1  Data  Lc  RinseAidMonitor.obj [2]
Last_Speed_Target       0x20003934     0x4  Data  Lc  APIMotorControl.obj [2]
Length                  0x20004e94     0x1  Data  Lc  JumpIf.obj [2]
Life_Test_Mode_Shortcut_Status
                        0x20004194     0x1  Data  Gb  DishAuxVar.obj [2]
Lifetime_Statistics_Options_Functions_IDs
                        0x0800e204    0x10  Data  Lc  StatisticsDish.obj [2]
LineRelayOpenMonitorExecute
                        0x0801c73d    0x26  Code  Lc  HeaterLineRelayOpenMonitor.obj [2]
LineRelayOpenMonitorInitialize
                        0x0801c763     0xe  Code  Lc  HeaterLineRelayOpenMonitor.obj [2]
Line_Relay_Open_Monitor_State
                        0x20004f88     0x1  Data  Lc  HeaterLineRelayOpenMonitor.obj [2]
Line_Voltage_Ok         0x20004f50     0x1  Data  Lc  MclTriacDrive.obj [2]
Liters_Current_Fill     0x200000f6     0x2  Data  Gb  DishAuxVar.obj [2]
Liters_Current_Regeneration
                        0x200000f8     0x2  Data  Lc  DishAuxVar.obj [2]
Liters_For_Tank_Empty   0x20004cd8     0x2  Data  Gb  Fill.obj [2]
Liters_For_Tank_Full    0x20004cda     0x2  Data  Gb  Fill.obj [2]
Liters_In_Tank_Before_Fill
                        0x20000180     0x2  Data  Gb  Fill.obj [2]
Liters_In_Tub           0x200000fa     0x2  Data  Gb  DishAuxVar.obj [2]
Liters_In_Tub_Before_Fill
                        0x2000017e     0x2  Data  Gb  Fill.obj [2]
Liters_In_Water_Tank    0x2000017c     0x2  Data  Gb  Fill.obj [2]
Liters_Since_Reference_Reset_Old
                        0x200041cc     0x2  Data  Lc  DishAuxVar.obj [2]
Liters_Unchecked        0x20000182     0x2  Data  Gb  Fill.obj [2]
Lo_Statement_Index_Length_ptr
                        0x20004d18     0x4  Data  Lc  Interpreter.obj [2]
LoadEstimationData      0x0800a0b1    0x48  Code  Lc  Estimator.obj [2]
LoadID_Monitored        0x08012798    0x20  Data  Lc  DishAuxVar.obj [2]
LoadPhaseData           0x08006469    0x9a  Code  Lc  Interpreter.obj [2]
LoadPhaseDataAndGetTimeEntry
                        0x0800a0f9    0x82  Code  Lc  Estimator.obj [2]
Load_Position_In_Custom_Bitmap
                        0x200041a8    0x20  Data  Lc  DishAuxVar.obj [2]
LoadsByOffCondition     0x0802e123    0x44  Code  Lc  LoadsControl.obj [2]
LoadsByOnCondition      0x0802e167    0x30  Code  Lc  LoadsControl.obj [2]
LoadsControlExecute     0x0802e2cd    0x72  Code  Lc  LoadsControl.obj [2]
LoadsControlInitialize  0x0802e33f     0xc  Code  Lc  LoadsControl.obj [2]
LoadsControl__Initialize
                        0x0802da71    0x1c  Code  Gb  LoadsControl.obj [2]
LoadsControl__Process   0x0802da8d   0x16a  Code  Gb  LoadsControl.obj [2]
LoadsInitialize         0x08018edd   0x2a4  Code  Lc  Hbl.obj [2]
LoadsOff                0x0802e197     0xa  Code  Lc  LoadsControl.obj [2]
LoadsOn                 0x0802e1a1     0xa  Code  Lc  LoadsControl.obj [2]
Loads_Bitmap_Status_0_15
                        0x200041ce     0x2  Data  Gb  DishAuxVar.obj [2]
Loads_Bitmap_Status_16_31
                        0x200041d0     0x2  Data  Gb  DishAuxVar.obj [2]
Loads_Control           0x200043b0    0x30  Data  Lc  LoadsControl.obj [2]
Loads_Control_Nv        0x2000021c    0x24  Data  Lc  LoadsControl.obj [2]
Loads_Control_Transitioned
                        0x200043a4     0x1  Data  Lc  LoadsControl.obj [2]
Log_Data                0x200046c4    0x14  Data  Lc  Log.obj [2]
Log_Messages            0x200046b0    0x14  Data  Lc  Log.obj [2]
Log_Msg_Per_Period      0x200046a9     0x1  Data  Lc  Log.obj [2]
Log_Period_Counter      0x200046aa     0x1  Data  Lc  Log.obj [2]
Log_Too_Fast            0x200046ab     0x1  Data  Lc  Log.obj [2]
Log__AddMessage         0x08007f95    0x50  Code  Gb  Log.obj [2]
Log__Background         0x08007f0f    0x86  Code  Gb  Log.obj [2]
Log__GetMessageSeverityFilter
                        0x08007feb     0x6  Code  Gb  Log.obj [2]
Log__Initialize         0x08007ee9    0x26  Code  Gb  Log.obj [2]
Log__SetMessageSeverityFilter
                        0x08007fe5     0x6  Code  Gb  Log.obj [2]
LoopComparisons         0x0801b9f3    0xbc  Code  Lc  Condition.obj [2]
LowPower_Flow_Meter_Pulse
                        0x200048d0     0x1  Data  Lc  LowPower.obj [2]
LowPower_Timeout        0x200048cd     0x1  Data  Lc  LowPower.obj [2]
LowPower_Timeout_Door_Open
                        0x200048cf     0x1  Data  Lc  LowPower.obj [2]
LowPower_Timeout_Float_Switch
                        0x200048ce     0x1  Data  Lc  LowPower.obj [2]
LowPower__Initialize    0x080270d1    0x4c  Code  Gb  LowPower.obj [2]
LowPower__IsWakeupValid
                        0x0802711d    0x2a  Code  Gb  LowPower.obj [2]
LowPower__Timer16IrqHandler
                        0x08027147    0xae  Code  Gb  LowPower.obj [2]
MAP_FAULT_KEYS_TO_FAULT_IDS
                        0x08013728    0x18  Data  Lc  API018Diagnostic.obj [2]
MCUDebug_MCHandler      0x08029787     0x2  Code  Gb  MCUDebug.obj [2]
MCUDebug_SlowHandler    0x08029785     0x2  Code  Gb  MCUDebug.obj [2]
MCUDebug__Initialize    0x08029783     0x2  Code  Gb  MCUDebug.obj [2]
MC_AddressFromBuffer    0x0802d151    0x1e  Code  Gb  mc_llmem.obj [2]
MC_AddressToBuffer      0x0802d16f    0x22  Code  Gb  mc_llmem.obj [2]
MC_Compare16S           0x0802cbd1    0x18  Code  Lc  mc_rec.obj [2]
MC_Compare16U           0x0802cbe9     0x8  Code  Lc  mc_rec.obj [2]
MC_Compare32S           0x0802cbfb    0x14  Code  Lc  mc_rec.obj [2]
MC_Compare32U           0x0802cc0f     0xc  Code  Lc  mc_rec.obj [2]
MC_Compare8S            0x0802cbaf    0x18  Code  Lc  mc_rec.obj [2]
MC_Compare8U            0x0802cbc7     0xa  Code  Lc  mc_rec.obj [2]
MC_Comparefloat         0x0802cc21    0x18  Code  Lc  mc_rec.obj [2]
MC_CopyFromBuffer       0x0802d113    0x16  Code  Gb  mc_llmem.obj [2]
MC_CopyFromBufferWithMask
                        0x0802d129    0x28  Code  Gb  mc_llmem.obj [2]
MC_CopyMemory           0x0802d0fd     0x2  Code  Gb  mc_llmem.obj [2]
MC_CopyToBuffer         0x0802d0ff     0x2  Code  Gb  mc_llmem.obj [2]
MC_GetBoardInfo         0x0802c869    0x3e  Code  Gb  mc_protocol.obj [2]
MC_GetRecBuff           0x0802cb6d    0x42  Code  Gb  mc_rec.obj [2]
MC_GetRecBuffSize       0x0802cb69     0x4  Code  Gb  mc_rec.obj [2]
MC_GetRecStatus         0x0802cb4d    0x1c  Code  Gb  mc_rec.obj [2]
MC_Init                 0x0802c785    0x18  Code  Gb  mc_protocol.obj [2]
MC_InitRec              0x0802c9b9     0xe  Code  Gb  mc_rec.obj [2]
MC_InitScope            0x0802d051     0x2  Code  Gb  mc_scope.obj [2]
MC_InitSerial           0x0802cebf    0x1e  Code  Gb  mc_serial.obj [2]
MC_Poll                 0x0802cee9     0x8  Code  Gb  mc_serial.obj [2]
MC_ProcessSCI           0x0802cd35    0x76  Code  Gb  mc_serial.obj [2]
MC_ProtocolDecoder      0x0802c79d    0xcc  Code  Gb  mc_protocol.obj [2]
MC_ReadLF               0x0802c915    0x42  Code  Gb  mc_protocol.obj [2]
MC_ReadMem              0x0802c8a7    0x1e  Code  Gb  mc_protocol.obj [2]
MC_ReadScope            0x0802d0bb    0x34  Code  Gb  mc_scope.obj [2]
MC_Recorder             0x0802cc39    0x14  Code  Gb  mc_rec.obj [2]
MC_Recorder2            0x0802cc69    0xc0  Code  Lc  mc_rec.obj [2]
MC_Rx                   0x0802cdfb    0xc4  Code  Gb  mc_serial.obj [2]
MC_SendResponse         0x0802cdab    0x50  Code  Gb  mc_serial.obj [2]
MC_SetUpRec             0x0802c9c7   0x106  Code  Gb  mc_rec.obj [2]
MC_SetUpScope           0x0802d053    0x68  Code  Gb  mc_scope.obj [2]
MC_StartRec             0x0802cacd    0x4a  Code  Gb  mc_rec.obj [2]
MC_StopRec              0x0802cb17    0x36  Code  Gb  mc_rec.obj [2]
MC_WriteLF              0x0802c957    0x30  Code  Gb  mc_protocol.obj [2]
MC_WriteLF_Byte         0x0802c987    0x30  Code  Gb  mc_protocol.obj [2]
MC_WriteMem             0x0802c8d5    0x16  Code  Gb  mc_protocol.obj [2]
MC_WriteMemMask         0x0802c8f9    0x1c  Code  Gb  mc_protocol.obj [2]
MICRO_FLASH_CRC         0x08038ffc     0x4  Data  Gb  Place holder MICRO_FLASH_CRC
MICRO_FLASH_END {Abs}   0x08038ffb          Data  Gb  command line/config [3]
MICRO_FLASH_START {Abs}
                        0x08003000          Data  Gb  command line/config [3]
MICRO_RESETINFO_FOOTER  0x0800722c    0x2c  Data  Gb  Micro.obj [2]
MICRO_RESETINFO_HEADER  0x080072c4    0x2c  Data  Gb  Micro.obj [2]
MPSettingFileStructure  0x20004d3c    0x10  Data  Lc  MoisturePrevention.obj [2]
MP_Activation_Mode      0x200049ad     0x1  Data  Lc  MoisturePreventionMonitor.obj [2]
MP_Step                 0x200049aa     0x1  Data  Lc  MoisturePreventionMonitor.obj [2]
MP_Test_POR_Time        0x200049ac     0x1  Data  Lc  MoisturePreventionMonitor.obj [2]
MULTIPLIER              0x0800a0ac     0x4  Data  Lc  Estimator.obj [2]
MainAppMgrInitialize    0x08014e89    0x26  Code  Lc  SRMain.obj [2]
MainAppMgrTCB           0x20002e6c    0x5c  Data  Gb  SRMain.obj [2]
MainAppMgrTaskStartStk  0x20023688   0x320  Data  Gb  SRMain.obj [2]
MainAppMgrThread        0x08014ec9    0x82  Code  Lc  SRMain.obj [2]
MainAsynchInitialize    0x08015001    0x22  Code  Lc  SRMain.obj [2]
MainAsynchThread        0x08015031    0x38  Code  Lc  SRMain.obj [2]
MainCommunicationInitialize
                        0x080150e9    0x22  Code  Lc  SRMain.obj [2]
MainCommunicationTCB    0x20002f24    0x5c  Data  Gb  SRMain.obj [2]
MainCommunicationTaskStartStk
                        0x200239b0   0x200  Data  Gb  SRMain.obj [2]
MainCommunicationThread
                        0x08015115    0x8c  Code  Lc  SRMain.obj [2]
MainFastAppMgrInitialize
                        0x08014f9d    0x1e  Code  Lc  SRMain.obj [2]
MainFastAppMgrTCB       0x20002ec8    0x5c  Data  Gb  SRMain.obj [2]
MainFastAppMgrTaskStartStk
                        0x20023bb4   0x200  Data  Gb  SRMain.obj [2]
MainFastAppMgrThread    0x08014fcd    0x2a  Code  Lc  SRMain.obj [2]
MainFastHandlerInitialize
                        0x080152e9    0x30  Code  Lc  SRMain.obj [2]
MainProgrammingAsynchTCB
                        0x20002f80    0x5c  Data  Gb  SRMain.obj [2]
MainProgrammingAsynchTaskStartStk
                        0x20023db8   0x200  Data  Gb  SRMain.obj [2]
MainProgrammingInitialize
                        0x08015081    0x1e  Code  Lc  SRMain.obj [2]
MainProgrammingThread   0x080150b5    0x26  Code  Lc  SRMain.obj [2]
MainTCB                 0x20002e10    0x5c  Data  Gb  SRMain.obj [2]
MainTaskStartStk        0x20023484   0x200  Data  Gb  SRMain.obj [2]
MainThread              0x08014cf5   0x146  Code  Lc  SRMain.obj [2]
Main_Communication_Enabled
                        0x20002e0c     0x1  Data  Lc  SRMain.obj [2]
Main_Cycle_Number_Of_Phases
                        0x200001ec     0x1  Data  Lc  Interpreter.obj [2]
Main_Normal_Enabled     0x20002e0d     0x1  Data  Lc  SRMain.obj [2]
Maintain                0x20004f34     0x4  Data  Lc  Maintain.obj [2]
MaintainExecute         0x0800e571    0x2e  Code  Lc  Maintain.obj [2]
MaintainInitialize      0x0800e59f     0xa  Code  Lc  Maintain.obj [2]
Maintain_Nv             0x20000240    0x10  Data  Lc  Maintain.obj [2]
Maintain_Transitioned   0x20004f38     0x1  Data  Lc  Maintain.obj [2]
Maintain__Initialize    0x0800e27d    0x24  Code  Gb  Maintain.obj [2]
Maintain__PauseEntry    0x0800e2a1     0x2  Code  Gb  Maintain.obj [2]
Maintain__Process       0x0800e2a3    0xca  Code  Gb  Maintain.obj [2]
MasterCommander__FastHandler
                        0x0802aa21     0x8  Code  Gb  MasterCommander.obj [2]
MasterCommander__Initialize
                        0x0802aa05    0x14  Code  Gb  MasterCommander.obj [2]
MasterCommander__PwmHandler
                        0x0802aa19     0x8  Code  Gb  MasterCommander.obj [2]
MasterLoadHandler       0x080223b1   0x2f6  Code  Lc  CrossLoads.obj [2]
MathCalc__Initialize    0x0802aa29     0x2  Code  Gb  MathCalc.obj [2]
MciInputProc_Current_Cnt
                        0x20004d20     0x4  Data  Lc  MclInputProc.obj [2]
MciSlfac_Active_Power_Previous
                        0x20004604     0x2  Data  Lc  MclFireAngleCtrl.obj [2]
MciSlfac_Active_Power_Temp
                        0x200047c0     0x4  Data  Lc  MclObserver.obj [2]
MciSlfac_P2P_Current    0x20003de4     0x2  Data  Lc  Mcl.obj [2]
MciSlfac_P2P_Voltage    0x20003de2     0x2  Data  Lc  Mcl.obj [2]
MciZeroCross__GetEvent  0x0802a0e1    0x30  Code  Gb  MciZeroCross.obj [2]
MciZeroCross__Initialize
                        0x0802a0d5     0xc  Code  Gb  MciZeroCross.obj [2]
MciZeroCross__ReadLastEvent
                        0x0802a111     0xa  Code  Gb  MciZeroCross.obj [2]
Mci_Digital_Error       0x20003930     0x4  Data  Lc  APIMotorControl.obj [2]
Mci_Digital_Inputs      0x2000392c     0x4  Data  Lc  APIMotorControl.obj [2]
Mci_Params_ID           0x20003de0     0x1  Data  Lc  Mcl.obj [2]
Mci_Params_Loaded       0x20004daa     0x1  Data  Lc  Mci.obj [2]
Mci_Wash_Motor_Type     0x20004da9     0x1  Data  Lc  Mci.obj [2]
Mci__1msHandler         0x08024e53     0x2  Code  Gb  Mci.obj [2]
Mci__5msHandler         0x08024e55     0x2  Code  Gb  Mci.obj [2]
Mci__ClearError         0x08024f0f    0x22  Code  Gb  Mci.obj [2]
Mci__GetAnalog          0x08024eed    0x22  Code  Gb  Mci.obj [2]
Mci__GetDigital         0x08024ed7    0x16  Code  Gb  Mci.obj [2]
Mci__GetDigitalList     0x08024ec1    0x16  Code  Gb  Mci.obj [2]
Mci__GetError           0x08024f31    0x18  Code  Gb  Mci.obj [2]
Mci__GetErrorList       0x08024ead    0x14  Code  Gb  Mci.obj [2]
Mci__Initialize         0x08024e29    0x12  Code  Gb  Mci.obj [2]
Mci__MotorControlHandler
                        0x08024fbf    0x2e  Code  Gb  Mci.obj [2]
Mci__Run                0x08024e57    0x2e  Code  Gb  Mci.obj [2]
Mci__SetWashMotorType   0x08024f49    0x76  Code  Gb  Mci.obj [2]
Mci__SlowHandler        0x08024e3b    0x18  Code  Gb  Mci.obj [2]
Mci__Stop               0x08024e85    0x28  Code  Gb  Mci.obj [2]
Mci__TriacFireHandler   0x08024fff    0x14  Code  Gb  Mci.obj [2]
Mci__ZeroCrossHandler   0x08024fed    0x12  Code  Gb  Mci.obj [2]
MclFireAngleCtrl__Initialize
                        0x0802b4ad    0x7c  Code  Gb  MclFireAngleCtrl.obj [2]
MclFireAngleCtrl__MotorControlHandler
                        0x0802ba19   0x318  Code  Gb  MclFireAngleCtrl.obj [2]
MclFireAngleCtrl__ResetState
                        0x0802b529    0x1e  Code  Gb  MclFireAngleCtrl.obj [2]
MclFireAngleCtrl__ZeroCrossHandler
                        0x0802b555   0x48e  Code  Gb  MclFireAngleCtrl.obj [2]
MclInitializeParameters
                        0x08029c89    0x40  Code  Lc  Mcl.obj [2]
MclInputProc__CurrentMonitor
                        0x0802ab59    0xe6  Code  Gb  MclInputProc.obj [2]
MclInputProc__Initialize
                        0x0802aa2d    0x72  Code  Gb  MclInputProc.obj [2]
MclInputProc__RunningHandler
                        0x0802aa9f    0xba  Code  Gb  MclInputProc.obj [2]
MclObserver__ActivePowerEstimation
                        0x0802b01d    0x7e  Code  Gb  MclObserver.obj [2]
MclObserver__Initialize
                        0x0802ac45   0x14a  Code  Gb  MclObserver.obj [2]
MclObserver__ResetState
                        0x0802b0a1    0x32  Code  Gb  MclObserver.obj [2]
MclObserver__RunningHandler
                        0x0802ad99   0x27e  Code  Gb  MclObserver.obj [2]
MclTriacDrive__ControlTriac
                        0x0802b163     0xe  Code  Gb  MclTriacDrive.obj [2]
MclTriacDrive__FastHandler
                        0x0802b0fd    0x16  Code  Gb  MclTriacDrive.obj [2]
MclTriacDrive__Initialize
                        0x0802b0d9    0x24  Code  Gb  MclTriacDrive.obj [2]
MclTriacDrive__TriacFireHandler
                        0x0802b113    0x50  Code  Gb  MclTriacDrive.obj [2]
MclZeroCross__Initialize
                        0x0802b449    0x24  Code  Gb  MclZeroCross.obj [2]
MclZeroCross__SemiPeriodFilter
                        0x0802b46d    0x20  Code  Gb  MclZeroCross.obj [2]
MclZeroCross__SemiPeriodPercent
                        0x0802b48d    0x14  Code  Gb  MclZeroCross.obj [2]
Mcl_Cs                  0x20003ddc     0x4  Data  Gb  Mcl.obj [2]
Mcl_FireAngle_Ctrl_IO   0x200033ac    0xa8  Data  Gb  Mcl.obj [2]
Mcl_Input_Proc_IO       0x20003dec    0x30  Data  Gb  Mcl.obj [2]
Mcl_Internal_ControlLoop
                        0x20003e2c    0x14  Data  Gb  Mcl.obj [2]
Mcl_Observer_IO         0x20003454    0x8c  Data  Gb  Mcl.obj [2]
Mcl_Params              0x20003e28     0x4  Data  Gb  Mcl.obj [2]
Mcl_Quantities          0x20003fc4    0x54  Data  Gb  Mcl.obj [2]
Mcl_Triac_Drive_IO      0x20003e40    0x64  Data  Gb  Mcl.obj [2]
Mcl_Zero_Cross_IO       0x20003e1c     0xc  Data  Gb  Mcl.obj [2]
Mcl__ClearError         0x08029c6f     0xe  Code  Gb  Mcl.obj [2]
Mcl__GetAnalog          0x08029c21    0x2e  Code  Gb  Mcl.obj [2]
Mcl__GetDigital         0x08029bd5    0x4c  Code  Gb  Mcl.obj [2]
Mcl__GetError           0x08029c55    0x14  Code  Gb  Mcl.obj [2]
Mcl__GetErrorList       0x08029c69     0x6  Code  Gb  Mcl.obj [2]
Mcl__GetParamsID        0x08029d33     0x6  Code  Gb  Mcl.obj [2]
Mcl__Initialize         0x08029789   0x2ea  Code  Gb  Mcl.obj [2]
Mcl__Run                0x08029b7f    0x22  Code  Gb  Mcl.obj [2]
Mcl__RunningHandler     0x08029a7d    0xb8  Code  Gb  Mcl.obj [2]
Mcl__SetParams          0x08029d1d    0x16  Code  Gb  Mcl.obj [2]
Mcl__SetWashMotorType   0x08029c7d     0xc  Code  Gb  Mcl.obj [2]
Mcl__SlowHandler        0x08029b39    0x20  Code  Gb  Mcl.obj [2]
Mcl__Stop               0x08029ba1    0x34  Code  Gb  Mcl.obj [2]
Mcl__TriacFireHandler   0x08029b6f    0x10  Code  Gb  Mcl.obj [2]
Mcl__ZeroCrossHandler   0x08029b59    0x16  Code  Gb  Mcl.obj [2]
McuGetDataMonitor__McuReset
                        0x0802a5e5     0x2  Code  Gb  McuGetDataMonitor.obj [2]
Measured_Drain_Triac_Current
                        0x20004cd4     0x2  Data  Lc  TriacShortedDrainFaultMonitor.obj [2]
Message_Response_Request
                        0x20004dae     0x2  Data  Lc  API007App.obj [2]
MicroBootFlashTest      0x08007035    0x54  Code  Lc  Micro.obj [2]
MicroBootWatchdogTest   0x08006f2d    0x18  Code  Lc  Micro.obj [2]
MicroClearResetData     0x080071a1    0x14  Code  Lc  Micro.obj [2]
MicroFailSafe           0x08007029     0x8  Code  Lc  Micro.obj [2]
MicroGetClocksStatus    0x08006dc1    0xa6  Code  Lc  Micro.obj [2]
MicroInitClk            0x08006ced    0xb6  Code  Lc  Micro.obj [2]
MicroIsResetSignatureValid
                        0x080071e5    0x32  Code  Lc  Micro.obj [2]
MicroJumptoResetHandler
                        0x080336a5    0x10  Code  Lc  MicroExtInterruptJumpTable.obj [2]
MicroReadActualReset    0x08006fa9    0x80  Code  Lc  Micro.obj [2]
MicroResetHandling      0x080070b5    0xe8  Code  Lc  Micro.obj [2]
MicroSetRamSignature    0x080071bd    0x1c  Code  Lc  Micro.obj [2]
MicroUpdateResetInfoDataCrc
                        0x0800727d    0x16  Code  Lc  Micro.obj [2]
MicroValidateResetInfoDataCrc
                        0x08007259    0x24  Code  Lc  Micro.obj [2]
Micro_ClocksStatus      0x20004dd0     0xc  Data  Lc  Micro.obj [2]
Micro_Flash_Crc         0x20004d2c     0x2  Data  Lc  Micro.obj [2]
Micro_Flash_Crc_Pt      0x20004d34     0x4  Data  Lc  Micro.obj [2]
Micro_ResetInfo         0x20000000    0x34  Data  Lc  Micro.obj [2]
Micro_ResetInfo_Footer  0x20023fd4    0x2c  Data  Lc  Micro.obj [2]
Micro__BootTest         0x08006779   0x224  Code  Gb  Micro.obj [2]
Micro__DelayNumNops     0x08006c15    0x14  Code  Gb  Micro.obj [2]
Micro__DisableWarmResetAction
                        0x08006c95    0x1e  Code  Gb  Micro.obj [2]
Micro__EnableWarmResetAction
                        0x08006c71    0x1e  Code  Gb  Micro.obj [2]
Micro__ForceReset       0x08006c33    0x1a  Code  Gb  Micro.obj [2]
Micro__GetClock         0x08006c0f     0x4  Code  Gb  Micro.obj [2]
Micro__GetFlashSize     0x08006cb9     0xc  Code  Gb  Micro.obj [2]
Micro__GetLastResetstatus
                        0x08006c29     0xa  Code  Gb  Micro.obj [2]
Micro__GetResetMode     0x08006c51     0xc  Code  Gb  Micro.obj [2]
Micro__HardwareInit     0x08006e99    0x94  Code  Gb  Micro.obj [2]
Micro__Initialize       0x08006699    0x50  Code  Gb  Micro.obj [2]
Micro__NVICEnableIRQ    0x080066f3    0x50  Code  Gb  Micro.obj [2]
Micro__NumberOfInterruptsDefined
                        0x080262a9    0x28  Code  Gb  InterruptVector.obj [2]
Micro__SRFlashTest      0x08006b8b    0x6e  Code  Gb  Micro.obj [2]
Micro__SRRamTest        0x080069d5   0x1b6  Code  Gb  Micro.obj [2]
Micro__ServiceWatchdog  0x08006bf9     0xe  Code  Gb  Micro.obj [2]
Micro__SetLowSpeedMode  0x080066e9     0xa  Code  Gb  Micro.obj [2]
Micro__Trap             0x08006c07     0x8  Code  Gb  Micro.obj [2]
Micro__WatchdogInit     0x08006f49    0x4a  Code  Gb  Micro.obj [2]
Millis__GetElapsed      0x080171e7    0x24  Code  Gb  Millis.obj [2]
Millis__GetElapsedSeconds
                        0x0801720b    0x10  Code  Gb  Millis.obj [2]
Millis__GetFreeRunningCounter
                        0x08017139     0x6  Code  Gb  Millis.obj [2]
Millis__GetRemaining    0x0801721b    0x32  Code  Gb  Millis.obj [2]
Millis__GetRemainingSeconds
                        0x0801724d    0x18  Code  Gb  Millis.obj [2]
Millis__Handler1ms      0x08017129    0x10  Code  Gb  Millis.obj [2]
Millis__Initialize      0x08017121     0x8  Code  Gb  Millis.obj [2]
Millis__Pause           0x080171b5    0x32  Code  Gb  Millis.obj [2]
Millis__ReachedTarget   0x08017265     0xe  Code  Gb  Millis.obj [2]
Millis__ReachedTargetSeconds
                        0x08017273     0xe  Code  Gb  Millis.obj [2]
Millis__Reset           0x0801713f    0x16  Code  Gb  Millis.obj [2]
Millis__SetElapsed      0x08017155    0x3a  Code  Gb  Millis.obj [2]
Millis__Start           0x0801718f    0x26  Code  Gb  Millis.obj [2]
Millisecond_Counter     0x20004e60     0x4  Data  Lc  ApplianceMgr.obj [2]
Milliseconds            0x20000250     0x4  Data  Lc  Millis.obj [2]
Mode                    0x200048f7     0x1  Data  Lc  Mode.obj [2]
Mode__GetMode           0x0800945d     0x6  Code  Gb  Mode.obj [2]
Mode__GetRemoteMode     0x080094d3     0x6  Code  Gb  Mode.obj [2]
Mode__GetSubMode        0x08009465     0xa  Code  Gb  Mode.obj [2]
Mode__GetSubMode::SUBMODE_STATE_MAP
                        0x08009698     0x8  Data  Lc  Mode.obj [2]
Mode__Handler           0x0800946f    0x20  Code  Gb  Mode.obj [2]
Mode__Initialize        0x080093e5    0x34  Code  Gb  Mode.obj [2]
Mode__IsPCControlEngaged
                        0x0800949f    0x1a  Code  Gb  Mode.obj [2]
Mode__IsProgrammingEngaged
                        0x080094b9    0x14  Code  Gb  Mode.obj [2]
Mode__SaveRemoteMode    0x080094cd     0x6  Code  Gb  Mode.obj [2]
Mode__SaveRemoteSubMode
                        0x080094d9     0x6  Code  Gb  Mode.obj [2]
Mode__SetMode           0x08009419    0x20  Code  Gb  Mode.obj [2]
Mode__SetModeExtended   0x08009439    0x24  Code  Gb  Mode.obj [2]
Mode__SpecialHeartBeat  0x0800948f    0x10  Code  Gb  Mode.obj [2]
ModelRecoveryData       0x20000280     0x4  Data  Lc  OWICalibrationProcess.obj [2]
Model_Options           0x2000419c     0xc  Data  Gb  DishAuxVar.obj [2]
Model_ProcessResult     0x20003628     0x1  Data  Lc  SensedDrainProcess.obj [2]
Modifier__GetValue      0x08017981    0x1c  Code  Gb  Modifier.obj [2]
Modifier__ModifyValue   0x0801799d   0x196  Code  Gb  Modifier.obj [2]
MoisturePreventionMonitorActive
                        0x20000264     0x1  Data  Lc  MoisturePreventionMonitor.obj [2]
MoisturePreventionMonitor__Activate
                        0x080113d1    0xb8  Code  Gb  MoisturePreventionMonitor.obj [2]
MoisturePreventionMonitor__CycleStarted
                        0x080114e7     0x8  Code  Gb  MoisturePreventionMonitor.obj [2]
MoisturePreventionMonitor__Deactivate
                        0x08011489    0x36  Code  Gb  MoisturePreventionMonitor.obj [2]
MoisturePreventionMonitor__Execution
                        0x08011265   0x16c  Code  Gb  MoisturePreventionMonitor.obj [2]
MoisturePreventionMonitor__GetStatus
                        0x080114e1     0x6  Code  Gb  MoisturePreventionMonitor.obj [2]
MoisturePreventionMonitor__Initialize
                        0x08011229    0x3c  Code  Gb  MoisturePreventionMonitor.obj [2]
MoisturePreventionMonitor__Pause
                        0x080114bf    0x22  Code  Gb  MoisturePreventionMonitor.obj [2]
MoisturePreventionMonitor__Resume
                        0x080114ef    0x18  Code  Gb  MoisturePreventionMonitor.obj [2]
MoisturePrevention_Pause_Source
                        0x20000266     0x1  Data  Lc  MoisturePreventionMonitor.obj [2]
MoisturePrevention_Seconds_Left
                        0x20000268     0x2  Data  Lc  MoisturePreventionMonitor.obj [2]
MoisturePrevention_Steps_Left
                        0x20000265     0x1  Data  Lc  MoisturePreventionMonitor.obj [2]
MoisturePrevention__Initialize
                        0x0800b199    0x9e  Code  Gb  MoisturePrevention.obj [2]
MoisturePrevention__NVDataRestore
                        0x0800b23d     0x2  Code  Gb  MoisturePrevention.obj [2]
MoisturePrevention__Pause
                        0x0800b257     0xa  Code  Gb  MoisturePrevention.obj [2]
MoisturePrevention__Resume
                        0x0800b261     0xa  Code  Gb  MoisturePrevention.obj [2]
MoisturePrevention__Task
                        0x0800b23f    0x10  Code  Gb  MoisturePrevention.obj [2]
MoisturePrevention__Terminate
                        0x0800b24f     0x8  Code  Gb  MoisturePrevention.obj [2]
Monitor                 0x0801dd9b    0xce  Code  Gb  OWIVoltageRegulatedOutputModel.obj [2]
MonitorClosedFaultState
                        0x0801cc93    0x12  Code  Lc  PilotRelayStuckClosedMonitor.obj [2]
MonitorFaultState       0x0802439b    0x12  Code  Lc  TriacShortedDrainFaultMonitor.obj [2]
MonitorHeaterOpenAndRelayLClosedFaultState
                        0x0801cb35    0x12  Code  Lc  HeaterOpenAndLineRelayClosedMonitor.obj [2]
MonitorHeaterOpenFaultState
                        0x0801c997    0x12  Code  Lc  HeaterOpenMonitor.obj [2]
MonitorLeakageFaultState
                        0x0801c811    0x12  Code  Lc  HeaterLeakageMonitor.obj [2]
MonitorOpenFaultState   0x0801cdf3    0x12  Code  Lc  PilotRelayStuckOpenMonitor.obj [2]
MonitorOpenFaultState   0x0801c263    0x12  Code  Lc  ThermistorOpenMonitor.obj [2]
MonitorRelayLOpenFaultState
                        0x0801c699    0x12  Code  Lc  HeaterLineRelayOpenMonitor.obj [2]
MonitorRelayNOpenFaultState
                        0x0801c523    0x12  Code  Lc  HeaterNeutralRelayOpenMonitor.obj [2]
MonitorShortedFaultState
                        0x0801c3a3    0x12  Code  Lc  ThermistorShortedMonitor.obj [2]
Monitor_Precondition    0x20000982     0x1  Data  Lc  WashHeaterFaultMonitor.obj [2]
MotorRequestFeedback    0x08025b8f    0x26  Code  Lc  PartialDrainModel.obj [2]
Motor_Off               0x20004ca0     0x1  Data  Lc  WashMotorFaultMonitor.obj [2]
Motor_On                0x20004c9f     0x1  Data  Lc  WashMotorFaultMonitor.obj [2]
Motor_Request_Decrement
                        0x08025b6f    0x20  Code  Lc  PartialDrainModel.obj [2]
Motor_Request_Decrement
                        0x0801ced5    0x22  Code  Lc  SensedDrainModel.obj [2]
Motor_Settings_Displ    0x0801aa08     0x2  Data  Gb  Vwi.obj [2]
Motor_Type              0x20004c98     0x1  Data  Lc  WashMotorFaultMonitor.obj [2]
Msg_Count               0x200042fb     0x1  Data  Lc  Win.obj [2]
Multiplier              0x0800e5ac     0x8  Data  Lc  Maintain.obj [2]
NON_MASKABLE_JUMP_INTERRUPT_TABLE
                        0x08000000     0x8  Data  Gb  MicroExtInterruptJumpTable.obj [2]
NO_SUB_CYCLES           0x0801387c     0x2  Data  Lc  SubCycle.obj [2]
NVDATA_SECTION_APPLIANCE$$Base
                        0x20000044          Data  Gb  - Linker created -
NVDATA_SECTION_APPLIANCE$$Limit
                        0x20000430          Data  Gb  - Linker created -
NVDATA_SECTION_HEADER$$Base
                        0x20000038           --   Gb  - Linker created -
NVDATA_SECTION_HEADER$$Limit
                        0x20000044           --   Gb  - Linker created -
NVDATA_SECTION_STATIC_CFG$$Base
                        0x2000075c          Data  Gb  - Linker created -
NVDATA_SECTION_STATIC_CFG$$Limit
                        0x20000860          Data  Gb  - Linker created -
NVDATA_SECTION_STATISTICS$$Base
                        0x20000430          Data  Gb  - Linker created -
NVDATA_SECTION_STATISTICS$$Limit
                        0x2000075c          Data  Gb  - Linker created -
NVData_BrownOut         0x20004ddc     0x1  Data  Lc  NVData.obj [2]
NVData_FirmwareCrc      0x20000418     0x2  Data  Lc  NVData.obj [2]
NVData_Header           0x20000038     0xc  Data  Lc  NVData.obj [2]
NVData_SettingFileCrc   0x2000041a     0x2  Data  Lc  NVData.obj [2]
NVData_Status           0x20004de0     0x4  Data  Lc  NVData.obj [2]
NVData__BronwOut        0x080074b9     0x6  Code  Gb  NVData.obj [2]
NVData__ForceBlockingStore
                        0x08007501    0xea  Code  Gb  NVData.obj [2]
NVData__GetLastRestoreStatus
                        0x080074bf     0x4  Code  Gb  NVData.obj [2]
NVData__Handler         0x080074b1     0x8  Code  Gb  NVData.obj [2]
NVData__Initialize      0x080072f1   0x1c0  Code  Gb  NVData.obj [2]
NVData__SetApplianceSegmentCorrupt
                        0x080074c3    0x28  Code  Gb  NVData.obj [2]
NVData__Store           0x08007609    0xf6  Code  Gb  NVData.obj [2]
NVData__StoreStaticData
                        0x080076ff    0x42  Code  Gb  NVData.obj [2]
NV_Demo_Active_Timer    0x200003a4    0x14  Data  Lc  StatisticsDish.obj [2]
NV_Message_States_Timer
                        0x20000078    0x14  Data  Lc  API007App.obj [2]
NV_Timer_Handle_Hot_High_Pot
                        0x20004a94    0x14  Data  Lc  HotHighPotMonitor.obj [2]
NV_Timer_Handle_OWI_Calibration_DelayTime
                        0x20004294    0x14  Data  Lc  OWICalibrationProcess.obj [2]
NV_Timer_Handle_OWI_Calibration_Timeout
                        0x20004280    0x14  Data  Lc  OWICalibrationProcess.obj [2]
NV_Timer_Handle_OWI_One_Shot_Save_Timeout
                        0x2000493c    0x14  Data  Lc  OWIOneShot.obj [2]
N_Crossloads_Num        0x200048cc     0x1  Data  Lc  CrossLoads.obj [2]
N_Current_SRCheck       0x20004e05     0x1  Data  Lc  SRProductMgr.obj [2]
N_Hbl_GI_Sequence       0x20003adc    0x14  Data  Lc  Hbl.obj [2]
N_Hbl_Keep_Loads_Off    0x20003a5c     0x1  Data  Lc  Hbl.obj [2]
N_Hbl_LLI_ICProcess_List
                        0x20003af0     0x4  Data  Lc  Hbl.obj [2]
N_Hbl_LLI_Sequence      0x20003ac4    0x18  Data  Lc  Hbl.obj [2]
N_Hbl_Load_Consistency  0x20003a7c    0x18  Data  Lc  Hbl.obj [2]
N_Hbl_Load_Consistency_LLI_SeqID
                        0x20003a94    0x30  Data  Lc  Hbl.obj [2]
N_Hbl_Load_Current_Priority
                        0x20003a64    0x18  Data  Lc  Hbl.obj [2]
N_Hbl_Load_Requests_Progress
                        0x20003a5d     0x1  Data  Lc  Hbl.obj [2]
N_Hbl_Num_ICProcess_LLI
                        0x20003a60     0x1  Data  Lc  Hbl.obj [2]
N_Hbl_Num_Loads         0x20003a5e     0x1  Data  Lc  Hbl.obj [2]
N_Hbl_Number_GI         0x20003a61     0x1  Data  Lc  Hbl.obj [2]
N_Hbl_Number_LLI        0x20003a5f     0x1  Data  Lc  Hbl.obj [2]
N_Is_Settingfile_Valid  0x20004e2c     0x1  Data  Lc  SettingFile.obj [2]
N_Isr_Attempt_Cntr      0x20004bae     0x1  Data  Lc  SRIsrMonitor.obj [2]
N_Isr_BootUp_Skip_Count
                        0x20004bad     0x1  Data  Lc  SRIsrMonitor.obj [2]
N_Isr_Enter_Cntr        0x20004baa     0x1  Data  Lc  SRIsrMonitor.obj [2]
N_Isr_Exit_Cntr         0x20004bab     0x1  Data  Lc  SRIsrMonitor.obj [2]
N_Isr_LowSpeed_Mode     0x20004bac     0x1  Data  Lc  SRIsrMonitor.obj [2]
N_Isr_Max               0x20004ba8     0x1  Data  Lc  SRIsrMonitor.obj [2]
N_Isr_Min               0x20004ba9     0x1  Data  Lc  SRIsrMonitor.obj [2]
N_Mode                  0x200048f9     0x1  Data  Lc  Mode.obj [2]
N_RAM_Test_Pointer      0x20004d38     0x4  Data  Lc  Micro.obj [2]
N_SRAction_Priority_Requests
                        0x20004e08     0x4  Data  Lc  SRProductMgr.obj [2]
N_SRClockMonitor_Counter
                        0x20004d5a     0x2  Data  Lc  SRClockMonitor.obj [2]
N_SRClockMonitor_ErrorCount
                        0x20004d57     0x1  Data  Lc  SRClockMonitor.obj [2]
N_SRClockMonitor_Event  0x20004d58     0x1  Data  Lc  SRClockMonitor.obj [2]
N_SRClock_First_Reading
                        0x20004d56     0x1  Data  Lc  SRClockMonitor.obj [2]
N_SRTaskMonitor_Error   0x2000444c     0x1  Data  Lc  SRTaskMonitor.obj [2]
N_SRTaskMonitor_Status  0x20004450     0x8  Data  Lc  SRTaskMonitor.obj [2]
N_SRTaskMonitor_Suspend_Attempts
                        0x2000444e     0x1  Data  Lc  SRTaskMonitor.obj [2]
N_SRTaskMonitor_Suspend_Time
                        0x2000444d     0x1  Data  Lc  SRTaskMonitor.obj [2]
N_SRTaskSequence_Error  0x2000447c     0x1  Data  Lc  SRTaskSequence.obj [2]
N_SRTaskSequence_Step   0x20004480     0x8  Data  Lc  SRTaskSequence.obj [2]
N_SRTaskSequence_Timeout
                        0x20004488     0xc  Data  Lc  SRTaskSequence.obj [2]
N_SRTimerReference_Counter
                        0x20004ee0     0x4  Data  Lc  SRTimerReference.obj [2]
N_Settingfile_Section_Position
                        0x20004e2d     0x1  Data  Lc  SettingFile.obj [2]
N_Timer_CatchTimer      0x20003f94    0x30  Data  Lc  Timer.obj [2]
N_Timer_Count           0x200048a0    0x10  Data  Lc  Timer.obj [2]
NeutralRelayOpenMonitorExecute
                        0x0801c5d1    0x26  Code  Lc  HeaterNeutralRelayOpenMonitor.obj [2]
NeutralRelayOpenMonitorInitialize
                        0x0801c5f7     0xe  Code  Lc  HeaterNeutralRelayOpenMonitor.obj [2]
Neutral_Relay_Open_Monitor_State
                        0x20004f89     0x1  Data  Lc  HeaterNeutralRelayOpenMonitor.obj [2]
Next_DC_Fan_Status      0x2000482e     0x1  Data  Lc  DCLoadCurrentMonitor.obj [2]
Next_DOS_Status         0x20004830     0x1  Data  Lc  DCLoadCurrentMonitor.obj [2]
Next_Dispenser_Status   0x2000422a     0x1  Data  Lc  TriacCurrentMonitor.obj [2]
Next_Diverter_Status    0x20004228     0x1  Data  Lc  TriacCurrentMonitor.obj [2]
Next_Drain_Pump_Status  0x20004224     0x1  Data  Lc  TriacCurrentMonitor.obj [2]
Next_Fill_Valve_Status  0x20004226     0x1  Data  Lc  TriacCurrentMonitor.obj [2]
Next_LITT_Status        0x2000482c     0x1  Data  Lc  DCLoadCurrentMonitor.obj [2]
Next_Lower_Tank_Status  0x20004230     0x1  Data  Lc  TriacCurrentMonitor.obj [2]
Next_Regeneration_Status
                        0x2000422e     0x1  Data  Lc  TriacCurrentMonitor.obj [2]
Next_Store_Address      0x20004de4     0x4  Data  Lc  NVData.obj [2]
Next_Upper_Tank_Status  0x20004232     0x1  Data  Lc  TriacCurrentMonitor.obj [2]
Next_Vent_Status        0x2000422c     0x1  Data  Lc  TriacCurrentMonitor.obj [2]
NoWaterFoundInAfterFillChecks
                        0x0800ea7d    0x84  Code  Lc  ClassAFill.obj [2]
NoWaterFoundInAfterFillChecks
                        0x0800eed1    0x2e  Code  Lc  TankFill.obj [2]
No_Water_Counter        0x20004bca     0x2  Data  Lc  StabilityControl.obj [2]
Node_Not_Sending_Timer  0x200042fd     0x1  Data  Lc  Win.obj [2]
Node_Run_Timer          0x20004b30     0x4  Data  Lc  SW05SoftwareTest.obj [2]
Node_Sent_Counter       0x200042fc     0x1  Data  Lc  Win.obj [2]
Nominal_Frequency       0x2000433a     0x1  Data  Lc  ZeroCross.obj [2]
NormalFill__ClearFillValveFailure
                        0x0800b84d    0x32  Code  Gb  NormalFill.obj [2]
NormalFill__ClearH2OAlarm
                        0x0800b87f     0x8  Code  Gb  NormalFill.obj [2]
NormalFill__Initialize  0x0800b751    0x24  Code  Gb  NormalFill.obj [2]
NormalFill__Manager     0x0800b775    0xb6  Code  Gb  NormalFill.obj [2]
NormalFill__SetFillSubcycleExecuted
                        0x0800b82b    0x22  Code  Gb  NormalFill.obj [2]
NotifyResetNode         0x080170c1    0x1c  Code  Lc  Reveal.obj [2]
Num_Functions_To_Main   0x20004ec4     0x1  Data  Lc  Regulations.obj [2]
Num_Functions_Total     0x20004ec5     0x1  Data  Lc  Regulations.obj [2]
Num_Loads_Supervisor_Monitored
                        0x20004f04     0x2  Data  Lc  SupervisorExtMonitor.obj [2]
Num_Of_Messages         0x200046a8     0x1  Data  Lc  Log.obj [2]
Num_Status_Variables    0x20004e0c     0x1  Data  Lc  Status.obj [2]
NumberOfOutputsOn       0x0801bd4b    0xba  Code  Lc  TriacVoltageMonitor.obj [2]
Number_Of_Expansion_Boards
                        0x2000457b     0x1  Data  Lc  API012Exp.obj [2]
NvdataExecute           0x08007a35    0x26  Code  Lc  NVData.obj [2]
NvdataInitialize        0x08007a5b     0x8  Code  Lc  NVData.obj [2]
Nvdata_State            0x20004f90     0x1  Data  Lc  NVData.obj [2]
OS_AssertCPUInISRMode   0x0801e24d    0x2e  Code  Gb  OS_Kern.o [6]
OS_AssertTaskMode       0x0801e209    0x3a  Code  Gb  OS_Kern.o [6]
OS_ChangeTask_STD       0x0801dedd   0x32c  Code  Gb  OS_Kern.o [6]
OS_CreateTask_DP        0x0801f329   0x14c  Code  Gb  OS_CreateTask.o [6]
OS_Deactivated          0x0801e429    0x42  Code  Gb  OS_Kern.o [6]
OS_DelayUntil           0x0801e579    0x2c  Code  Gb  OS_Kern.o [6]
OS_EnableProfiling      0x0801e4af    0x56  Code  Gb  OS_Kern.o [6]
OS_Error                0x0801f25d    0x2c  Code  Gb  OS_Error.obj [2]
OS_Exception            0x0801f481          Code  Gb  rtos.o [6]
OS_GetCPUState          0x08026269          Code  Gb  OS_GetCPUState.o [6]
OS_GetSP                0x08026265     0x4  Code  Gb  OS_StackInfo.o [6]
OS_GetStackSize         0x0802a547    0x18  Code  Gb  OS_TaskStackInfo.o [6]
OS_GetStackSpace        0x0802a4d9    0x6e  Code  Gb  OS_TaskStackInfo.o [6]
OS_GetSysStackBase      0x08026251     0x4  Code  Gb  OS_StackInfo.o [6]
OS_GetSysStackSize      0x08026255     0x8  Code  Gb  OS_StackInfo.o [6]
OS_GetSysStackSpace     0x0802a47f    0x58  Code  Gb  OS_SysStackInfo.o [6]
OS_GetTime_Cycles       0x0801f1ff    0x2c  Code  Gb  EmbOSBasic.obj [2]
OS_GetVersion           0x0801f475     0x6  Code  Gb  OS_Info.o [6]
OS_Global               0x20000860    0x48  Data  Gb  OS_Global.o [6]
OS_Idle                 0x0801f1fd     0x2  Code  Gb  EmbOSBasic.obj [2]
OS_InTimer              0x20004fa5     0x1  Data  Gb  OS_Global.o [6]
OS_InitCalled           0x20004fa6     0x1  Data  Gb  OS_Global.o [6]
OS_InitKern_STD         0x0801e47f    0x30  Code  Gb  OS_Kern.o [6]
OS_InitMode             0x08026281    0x1c  Code  Gb  OS_InitMode.o [6]
OS_InitialSuspendCnt    0x20004fa3     0x1  Data  Gb  OS_Global.o [6]
OS_InsertTask           0x0801e385    0xa4  Code  Gb  OS_Kern.o [6]
OS_JLINKMEM_BufferSize  0x080336c0     0x4  Data  Gb  EmbOSBasic.obj [2]
OS_LeaveRegion          0x0801e27b    0x5a  Code  Gb  OS_Kern.o [6]
OS_MakeTaskReady        0x0801e2dd    0xa4  Code  Gb  OS_Kern.o [6]
OS_ProfilingExTime      0x20004f80     0x4  Data  Lc  OS_Kern.o [6]
OS_Running              0x20004fa2     0x1  Data  Gb  OS_Global.o [6]
OS_STAT_GetTaskExecTime
                        0x0802643f    0x38  Code  Gb  OS_Stat.o [6]
OS_STAT_Sample          0x080263e5    0x5a  Code  Gb  OS_Stat.o [6]
OS_STAT_SampleDelta     0x20004f1c     0x4  Data  Gb  OS_Stat.o [6]
OS_SetTaskContextExtension
                        0x0801e5b5    0x10  Code  Gb  OS_Kern.o [6]
OS_StartASM             0x0801f523          Code  Gb  rtos.o [6]
OS_StartTask            0x0801f511          Code  Gb  rtos.o [6]
OS_Status               0x20004fa1     0x1  Data  Gb  OS_Global.o [6]
OS_Switch               0x0801f545          Code  Gb  rtos.o [6]
OS_SwitchAfterISR_CortexM3
                        0x0801f557          Code  Gb  rtos.o [6]
OS_SwitchFromInt        0x0801f55f          Code  Gb  rtos.o [6]
OS_Switch_End           0x0801f55d          Code  Gb  rtos.o [6]
OS_TICK_Handle          0x08026521    0x74  Code  Gb  OS_TICK_Handle.o [6]
OS_TS_ExecStart         0x20004f70     0x4  Data  Gb  OS_Global.o [6]
OS_TerminateError       0x0801e471     0xe  Code  Gb  OS_Kern.o [6]
OS_TickStep             0x20004fa4     0x1  Data  Gb  OS_Global.o [6]
OS_TickStepTime         0x20004f6c     0x4  Data  Gb  OS_Global.o [6]
OS_Timing_End           0x080264cf    0x4e  Code  Gb  OS_Timing.o [6]
OS_Timing_Start         0x08026485    0x4a  Code  Gb  OS_Timing.o [6]
OS_Version              0x080336c4     0x4  Data  Gb  OS_Global.o [6]
OS_pDefaultTaskContextExtension
                        0x20004f7c     0x4  Data  Gb  OS_Global.o [6]
OS_pTLS                 0x20004f78     0x4  Data  Gb  OS_Global.o [6]
OS_pTickHook            0x20004f74     0x4  Data  Gb  OS_Global.o [6]
OWICalibrationModel_DW_GLOBAL
                        0x20004c60    0x10  Data  Gb  OWICalibrationModel.obj [2]
OWICalibration_Control  0x20004274     0x4  Data  Gb  OWICalibrationProcess.obj [2]
OWICalibration_Model_Data
                        0x20004c5c     0x4  Data  Lc  OWICalibrationModel.obj [2]
OWICalibration_Process_Initialized
                        0x2000426c     0x1  Data  Lc  OWICalibrationProcess.obj [2]
OWICalibration_State    0x200003dd     0x1  Data  Gb  DishAuxVar.obj [2]
OWICalibration_Status   0x200003de     0x1  Data  Gb  DishAuxVar.obj [2]
OWICalibration_Turbidity_Voltage_Reading
                        0x20000114     0x4  Data  Gb  DishAuxVar.obj [2]
OWICalibration__GetDelayTimeState
                        0x0801a04b    0x10  Code  Gb  OWICalibrationProcess.obj [2]
OWICalibration__GetModelData
                        0x0801a05b     0x6  Code  Gb  OWICalibrationProcess.obj [2]
OWICalibration__GetRunningFlag
                        0x0801a061     0x6  Code  Gb  OWICalibrationProcess.obj [2]
OWICalibration__GetState
                        0x0801a019     0x6  Code  Gb  OWICalibrationProcess.obj [2]
OWICalibration__GetStatus
                        0x0801a035     0x6  Code  Gb  OWICalibrationProcess.obj [2]
OWICalibration__GetTimeoutState
                        0x0801a03b    0x10  Code  Gb  OWICalibrationProcess.obj [2]
OWICalibration__GetTurbidityVoltage
                        0x0801a01f    0x16  Code  Gb  OWICalibrationProcess.obj [2]
OWICalibration__Initialize
                        0x0801a0f3     0x8  Code  Gb  OWICalibrationProcess.obj [2]
OWICalibration__Model   0x08024ac5   0x344  Code  Gb  OWICalibrationModel.obj [2]
OWICalibration__Process
                        0x0801a067    0x8c  Code  Gb  OWICalibrationProcess.obj [2]
OWICalibration__SetDelayTimeMs
                        0x08019ff9    0x14  Code  Gb  OWICalibrationProcess.obj [2]
OWICalibration__SetDutyCycle
                        0x08019fb9    0x2c  Code  Gb  OWICalibrationProcess.obj [2]
OWICalibration__SetModelData
                        0x0801a00d     0x6  Code  Gb  OWICalibrationProcess.obj [2]
OWICalibration__SetProcessResult
                        0x08019fa1     0x6  Code  Gb  OWICalibrationProcess.obj [2]
OWICalibration__SetRunningFlag
                        0x0801a013     0x6  Code  Gb  OWICalibrationProcess.obj [2]
OWICalibration__SetState
                        0x08019fa7     0x6  Code  Gb  OWICalibrationProcess.obj [2]
OWICalibration__SetStatus
                        0x08019fb3     0x6  Code  Gb  OWICalibrationProcess.obj [2]
OWICalibration__SetTimeoutMs
                        0x08019fe5    0x14  Code  Gb  OWICalibrationProcess.obj [2]
OWICalibration__SetTurbidityVoltageReading
                        0x08019fad     0x6  Code  Gb  OWICalibrationProcess.obj [2]
OWICalibration_isRunningFlag
                        0x20004f91     0x1  Data  Lc  OWICalibrationProcess.obj [2]
OWIContinousReading__Initialize
                        0x08033445     0x4  Code  Gb  OWIContinousReading.obj [2]
OWIContinousReading__NVDataRestore
                        0x08033449     0x2  Code  Gb  OWIContinousReading.obj [2]
OWIContinousReading__Task
                        0x0803344b    0x3a  Code  Gb  OWIContinousReading.obj [2]
OWIContinousReading__Terminate
                        0x08033489     0x2  Code  Gb  OWIContinousReading.obj [2]
OWIMonitor__CheckFaultCondition
                        0x0800b155    0x2e  Code  Gb  OWIMonitor.obj [2]
OWIMonitor__CycleEndEvent
                        0x0800b123    0x32  Code  Gb  OWIMonitor.obj [2]
OWIMonitor__CycleStarted
                        0x0800b109    0x1a  Code  Gb  OWIMonitor.obj [2]
OWIMonitor__Execution   0x0800b043    0xc6  Code  Gb  OWIMonitor.obj [2]
OWIMonitor__Initialize  0x0800afed    0x56  Code  Gb  OWIMonitor.obj [2]
OWIOneShotExecute       0x0800e771    0x26  Code  Lc  OWIOneShot.obj [2]
OWIOneShotInitialize    0x0800e797     0xe  Code  Lc  OWIOneShot.obj [2]
OWIOneShotTerminate     0x0800e7a5     0x8  Code  Lc  OWIOneShot.obj [2]
OWIOneShot_Process_Initialized
                        0x20004935     0x1  Data  Lc  OWIOneShot.obj [2]
OWIOneShot_Ready_To_Exit
                        0x20004934     0x1  Data  Lc  OWIOneShot.obj [2]
OWIOneShot__CycleResumeEnd
                        0x0800e657    0x18  Code  Gb  OWIOneShot.obj [2]
OWIOneShot__CycleResumeStart
                        0x0800e63f    0x18  Code  Gb  OWIOneShot.obj [2]
OWIOneShot__Initialize  0x0800e61b    0x10  Code  Gb  OWIOneShot.obj [2]
OWIOneShot__PauseTimer  0x0800e62b     0xa  Code  Gb  OWIOneShot.obj [2]
OWIOneShot__Process     0x0800e5b5    0x66  Code  Gb  OWIOneShot.obj [2]
OWIOneShot__ResumeTimer
                        0x0800e635     0xa  Code  Gb  OWIOneShot.obj [2]
OWIVoltageRegulatedOutputModel__Initialize
                        0x0801de7f    0x58  Code  Gb  OWIVoltageRegulatedOutputModel.obj [2]
OWIVoltageRegulatedOutputReset
                        0x08012679    0x12  Code  Lc  OWIVoltageRegulatedOutput.obj [2]
OWIVoltageRegulatedOutputStop
                        0x0801268b    0x10  Code  Lc  OWIVoltageRegulatedOutput.obj [2]
OWIVoltageRegulatedOutput__Execution
                        0x080125f3    0x34  Code  Gb  OWIVoltageRegulatedOutput.obj [2]
OWIVoltageRegulatedOutput__GetSequenceId
                        0x08012627    0x10  Code  Gb  OWIVoltageRegulatedOutput.obj [2]
OWIVoltageRegulatedOutput__Initialize
                        0x080125d1    0x22  Code  Gb  OWIVoltageRegulatedOutput.obj [2]
OWIVoltageRegulatedOutput__RequestKeepRunning
                        0x08012655     0xe  Code  Gb  OWIVoltageRegulatedOutput.obj [2]
OWIVoltageRegulatedOutput__RequestReset
                        0x08012637    0x10  Code  Gb  OWIVoltageRegulatedOutput.obj [2]
OWIVoltageRegulatedOutput__RequestResetIfDisabled
                        0x08012663     0xe  Code  Gb  OWIVoltageRegulatedOutput.obj [2]
OWIVoltageRegulatedOutput__RequestStop
                        0x08012647     0xe  Code  Gb  OWIVoltageRegulatedOutput.obj [2]
OWIVoltageRegulatedOutput__ResetSetpoint
                        0x08012671     0x8  Code  Gb  OWIVoltageRegulatedOutput.obj [2]
OWI_Analog              0x20004f46     0x2  Data  Gb  DishAuxVar.obj [2]
OWI_Calibration_Drive_Duty_Cycle
                        0x200001d6     0x2  Data  Gb  DishAuxVar.obj [2]
OWI_Delaytimer          0x2000427c     0x4  Data  Lc  OWICalibrationProcess.obj [2]
OWI_One_Shot_State      0x20004f92     0x1  Data  Lc  OWIOneShot.obj [2]
OWI_Prev_Calibration_Ongoing
                        0x20004eac     0x1  Data  Lc  OWIMonitor.obj [2]
OWI_Status              0x20000421     0x1  Data  Gb  DishAuxVar.obj [2]
OWI_Timeout_Timer       0x20004278     0x4  Data  Lc  OWICalibrationProcess.obj [2]
OWI_VRO_Avg_Coeff_SP    0x200002bc     0x8  Data  Lc  OwiVroRead.obj [2]
OWI_VRO_Comp_Coeffs_Array
                        0x2000028c    0x30  Data  Lc  OwiVroRead.obj [2]
OWI_VRO_DutyCycle_Comp  0x20004068     0x2  Data  Gb  OWIVoltageRegulatedOutputModel.obj [2]
OWI_VRO_DutyCycle_Sequence_Id
                        0x20004019     0x1  Data  Lc  OWIVoltageRegulatedOutputModel.obj [2]
OWI_VRO_DutyCycle_Stable
                        0x2000406a     0x2  Data  Gb  OWIVoltageRegulatedOutputModel.obj [2]
OWI_VRO_Model_Enabled   0x20004eb5     0x1  Data  Lc  OWIVoltageRegulatedOutput.obj [2]
OWI_VRO_Monitor_Linearization
                        0x08025da1   0x126  Code  Lc  OWI_VRO_Monitor.obj [2]
OWI_VRO_Monitor_RUN     0x08025ec7   0x214  Code  Lc  OWI_VRO_Monitor.obj [2]
OWI_VRO_Monitor__Execute
                        0x080260e5   0x150  Code  Gb  OWI_VRO_Monitor.obj [2]
OWI_VRO_Monitor_b       0x20004ad4     0x4  Data  Gb  OWI_VRO_Monitor.obj [2]
OWI_VRO_Monitor_dw      0x20004ac0    0x14  Data  Gb  OWI_VRO_Monitor.obj [2]
OWI_VRO_OWI_Status      0x20000288     0x1  Data  Gb  OwiVroRead.obj [2]
OWI_VRO_RTModelData     0x20004eb8     0x4  Data  Lc  OWIVoltageRegulatedOutput.obj [2]
OWI_VRO_Request         0x20004eb4     0x1  Data  Lc  OWIVoltageRegulatedOutput.obj [2]
OWI_VRO_Reset           0x2000401a     0x1  Data  Gb  OWIVoltageRegulatedOutputModel.obj [2]
OWI_VRO_SetPoint_Index  0x2000401b     0x1  Data  Lc  OWIVoltageRegulatedOutputModel.obj [2]
OWI_VRO_Setpoint_Displacements
                        0x0800cb28     0x4  Data  Lc  OwiVroRead.obj [2]
OWI_VRO_Setpoint_Index  0x20004eb6     0x1  Data  Lc  OWIVoltageRegulatedOutput.obj [2]
OWI_VRO_Soil_Measure_NonComp
                        0x200002c4     0xc  Data  Lc  OwiVroRead.obj [2]
OWI_VRO_StateMachine    0x20004018     0x1  Data  Lc  OWIVoltageRegulatedOutputModel.obj [2]
OWI_VRO_Stop            0x2000401c     0x1  Data  Lc  OWIVoltageRegulatedOutputModel.obj [2]
OWI_VRO_Voltage_Reading
                        0x20004060     0x4  Data  Lc  OWIVoltageRegulatedOutputModel.obj [2]
OWI_VRO_Voltage_Stable  0x20004064     0x4  Data  Lc  OWIVoltageRegulatedOutputModel.obj [2]
OWI__Initialize         0x0803338d    0x14  Code  Gb  OWI.obj [2]
OWI__Process            0x080333a1    0x56  Code  Gb  OWI.obj [2]
OpenFaultDetected       0x0801c24f     0xa  Code  Lc  ThermistorOpenMonitor.obj [2]
OpenRegenerationAndFillValveDo
                        0x0801a3d3    0x44  Code  Lc  Regenerate.obj [2]
OpenRegenerationAndFillValveEntry
                        0x0801a385    0x4e  Code  Lc  Regenerate.obj [2]
OpenRegenerationValve1Do
                        0x0801a355    0x30  Code  Lc  Regenerate.obj [2]
OpenRegenerationValve1Entry
                        0x0801a341    0x14  Code  Lc  Regenerate.obj [2]
OpenRegenerationValve2Do
                        0x0801a44d    0x26  Code  Lc  Regenerate.obj [2]
OpenRegenerationValve2Entry
                        0x0801a417    0x36  Code  Lc  Regenerate.obj [2]
OutputCompareStart      0x0802083d    0x68  Code  Lc  Timer.obj [2]
OutputsOnVerificationEnded
                        0x0801bd0f    0x3c  Code  Lc  TriacVoltageMonitor.obj [2]
OverfillMonitor__Execution
                        0x080234bb    0x7e  Code  Gb  OverfillMonitor.obj [2]
OverfillMonitor__Initialize
                        0x080234a9    0x12  Code  Gb  OverfillMonitor.obj [2]
Overfill_Input          0x20004f93     0x1  Data  Lc  OverfillMonitor.obj [2]
OwiVroContinuousReading__Task
                        0x080335b1    0x22  Code  Gb  OwiVroContinuousReading.obj [2]
OwiVroExecute           0x0800cfc9    0x30  Code  Lc  OwiVroRead.obj [2]
OwiVroInitialize        0x0800cff9     0x8  Code  Lc  OwiVroRead.obj [2]
OwiVroRead_Data         0x200043e0    0x3c  Data  Lc  OwiVroRead.obj [2]
OwiVroRead_NV_Data      0x20000284     0x4  Data  Lc  OwiVroRead.obj [2]
OwiVroRead__CycleEndEvent
                        0x0800c9df    0x14  Code  Gb  OwiVroRead.obj [2]
OwiVroRead__CycleStarted
                        0x0800c9f3    0x62  Code  Gb  OwiVroRead.obj [2]
OwiVroRead__GetAvgCoeff
                        0x0800c9cd    0x12  Code  Gb  OwiVroRead.obj [2]
OwiVroRead__Initialize  0x0800c8fd    0x76  Code  Gb  OwiVroRead.obj [2]
OwiVroRead__Process     0x0800c973    0x5a  Code  Gb  OwiVroRead.obj [2]
PARAM_OWIVROData        0x20004048     0x4  Data  Lc  OWIVoltageRegulatedOutputModel.obj [2]
PARAM_OWIVROLinearizationData_DutyCycle
                        0x2000404c     0x4  Data  Lc  OWIVoltageRegulatedOutputModel.obj [2]
PARAM_OWIVROLinearizationData_Multiplier
                        0x20004050     0x4  Data  Lc  OWIVoltageRegulatedOutputModel.obj [2]
PARAM_OWIVROLinearizationNumItems
                        0x2000401d     0x1  Data  Lc  OWIVoltageRegulatedOutputModel.obj [2]
PARAM_OWIVROSetpoint1Data
                        0x20004054     0x4  Data  Lc  OWIVoltageRegulatedOutputModel.obj [2]
PARAM_OWIVROSetpoint2Data
                        0x20004058     0x4  Data  Lc  OWIVoltageRegulatedOutputModel.obj [2]
PARAM_OWIVROSetpoint3Data
                        0x2000405c     0x4  Data  Lc  OWIVoltageRegulatedOutputModel.obj [2]
PARAM_OWIVRO_LinearizationTable_DutyCycle
                        0x20004028    0x10  Data  Lc  OWIVoltageRegulatedOutputModel.obj [2]
PARAM_OWIVRO_LinearizationTable_Multiplier
                        0x20004038    0x10  Data  Lc  OWIVoltageRegulatedOutputModel.obj [2]
PC_Drain_Pump_Deblocking_Ready
                        0x200001ef     0x1  Data  Lc  PumpControl.obj [2]
PC_Subcycle_Name        0x20003f06     0x2  Data  Lc  PumpControl.obj [2]
PC_Wait_MCU_Reset_Timer_Handle
                        0x20003f50    0x14  Data  Lc  PumpControl.obj [2]
PC_Wait_Status_Timer_Handle
                        0x20004c70    0x14  Data  Lc  PumpControl.obj [2]
PC_Wait_Stopped_Timer_Handle
                        0x20003f3c    0x14  Data  Lc  PumpControl.obj [2]
PC_Wash_Pump_Deblocking_Ready
                        0x200001ee     0x1  Data  Lc  PumpControl.obj [2]
PIN_CONFIG_MODER        0x0801ebc0     0x8  Data  Lc  Gpio.obj [2]
PIN_CONFIG_OTYPER       0x0801ebc8     0x8  Data  Lc  Gpio.obj [2]
PIN_CONFIG_PUPDR        0x0801ebd0     0x8  Data  Lc  Gpio.obj [2]
PORTimeMonitor__Execution
                        0x080230e3    0xdc  Code  Gb  PORTimeMonitor.obj [2]
PORTimeMonitor__Initialize
                        0x080230cd    0x16  Code  Gb  PORTimeMonitor.obj [2]
POR_LLI_Data            0x20004f5e     0x2  Data  Gb  PORTimeMonitor.obj [2]
POSSIBLE_BLOCKED_APIS_LIST
                        0x080170e4    0x14  Data  Lc  Reveal.obj [2]
PRESCALAR_MULTIPLIER    0x080131e0     0xc  Data  Gb  FdmTimer.obj [2]
PRE_FAULT_REF           0x080086ac     0xc  Data  Lc  Statistics.obj [2]
PRODUCTINFO_BOARD_MAIN_PROJECT_DATA
                        0x0802eb38    0x34  Data  Lc  ProductInfo.obj [2]
PUBLISH_DATA_FUNCTION_PTR
                        0x0802f200    0x48  Data  Gb  API005LowLevel.obj [2]
Parameter               0x20004e98     0x4  Data  Lc  JumpIf.obj [2]
PartialDrainData        0x200008d4     0xc  Data  Lc  PartialDrainProcess.obj [2]
PartialDrainModel__Execute
                        0x08025bb5   0x1cc  Code  Gb  PartialDrainModel.obj [2]
PartialDrainModel__Initialize
                        0x08025d81    0x20  Code  Gb  PartialDrainModel.obj [2]
PartialDrainProcess_StatusResult
                        0x200008e2     0x1  Data  Lc  PartialDrainProcess.obj [2]
PartialDrainProcess__GetAttemptTimerState
                        0x0801d88f     0xa  Code  Gb  PartialDrainProcess.obj [2]
PartialDrainProcess__GetDrainInitialValue
                        0x0801d875     0x8  Code  Gb  PartialDrainProcess.obj [2]
PartialDrainProcess__GetDrainPumpIsStopped
                        0x0801d8a9     0x6  Code  Gb  PartialDrainProcess.obj [2]
PartialDrainProcess__GetDrainPumpReachedSpeed
                        0x0801d8a3     0x6  Code  Gb  PartialDrainProcess.obj [2]
PartialDrainProcess__GetLitersInTub
                        0x0801d85b    0x1a  Code  Gb  PartialDrainProcess.obj [2]
PartialDrainProcess__GetProcessResult
                        0x0801d855     0x6  Code  Gb  PartialDrainProcess.obj [2]
PartialDrainProcess__GetVwiSignal
                        0x0801d87d     0xa  Code  Gb  PartialDrainProcess.obj [2]
PartialDrainProcess__GetVwiStableTimerState
                        0x0801d899     0xa  Code  Gb  PartialDrainProcess.obj [2]
PartialDrainProcess__GetVwiStatus
                        0x0801d887     0x8  Code  Gb  PartialDrainProcess.obj [2]
PartialDrainProcess__SendFbkRequest
                        0x0801d927     0x2  Code  Gb  PartialDrainProcess.obj [2]
PartialDrainProcess__SetAttemptTimer
                        0x0801d8af    0x1e  Code  Gb  PartialDrainProcess.obj [2]
PartialDrainProcess__SetDrainPumpMode
                        0x0801d8eb    0x3c  Code  Gb  PartialDrainProcess.obj [2]
PartialDrainProcess__SetVwiStableTimer
                        0x0801d8cd    0x1e  Code  Gb  PartialDrainProcess.obj [2]
PartialDrain_AttemptTimer_Handler
                        0x200008fc    0x14  Data  Lc  PartialDrainProcess.obj [2]
PartialDrain_AttemptTimer_State
                        0x200008e0     0x1  Data  Lc  PartialDrainProcess.obj [2]
PartialDrain_AttemptTimer_Value
                        0x200008f4     0x4  Data  Lc  PartialDrainProcess.obj [2]
PartialDrain_ObservableStates
                        0x20004ad8    0x18  Data  Lc  PartialDrainProcess.obj [2]
PartialDrain_RTModelData
                        0x200002d0     0x4  Data  Lc  PartialDrainProcess.obj [2]
PartialDrain_RTModelDataPrt
                        0x200008f0     0x4  Data  Lc  PartialDrainProcess.obj [2]
PartialDrain_VwiStableTimer_Handler
                        0x20000910    0x14  Data  Lc  PartialDrainProcess.obj [2]
PartialDrain_VwiStableTimer_State
                        0x200008e1     0x1  Data  Lc  PartialDrainProcess.obj [2]
PartialDrain_VwiStableTimer_Value
                        0x200008f8     0x4  Data  Lc  PartialDrainProcess.obj [2]
PartialDrain__Initialize
                        0x0801d929     0xa  Code  Gb  PartialDrainProcess.obj [2]
PartialDrain__Process   0x0801d933    0xd6  Code  Gb  PartialDrainProcess.obj [2]
PartialReactionUpdate   0x0800d651    0xe4  Code  Lc  StabilityControl.obj [2]
Partial_Drain_Status    0x20000420     0x1  Data  Gb  DishAuxVar.obj [2]
PauseDo                 0x080045d5    0x80  Code  Lc  Supervisor.obj [2]
PauseEntry              0x08004655    0x6e  Code  Lc  Supervisor.obj [2]
PauseExit               0x080046c3    0x18  Code  Lc  Supervisor.obj [2]
Pause_Resume_Data       0x200001f4     0xc  Data  Lc  Interpreter.obj [2]
Pause_Resume_Status     0x20000200     0x8  Data  Lc  Interpreter.obj [2]
PeakDetector__GetMax    0x0802c041    0x16  Code  Gb  PeakDetector.obj [2]
PeakDetector__GetMin    0x0802c02d    0x14  Code  Gb  PeakDetector.obj [2]
PeakDetector__GetPeak2Peak
                        0x0802c057    0x20  Code  Gb  PeakDetector.obj [2]
PeakDetector__Initialize
                        0x0802bfad    0x1a  Code  Gb  PeakDetector.obj [2]
PeakDetector__SetValue  0x0802bfe3    0x4a  Code  Gb  PeakDetector.obj [2]
PeakDetector__Setup     0x0802bfc7    0x1c  Code  Gb  PeakDetector.obj [2]
Peak_Detector           0x20004af0    0x18  Data  Lc  PeakDetector.obj [2]
PendSV_Handler          0x0801f481          Code  Gb  rtos.o [6]
Phase_Repetitions       0x200000f3     0x1  Data  Gb  DishAuxVar.obj [2]
Pi_Bemf_Shirt_Limiter   0x200045e4    0x14  Data  Gb  MclFireAngleCtrl.obj [2]
Pi_Param                0x200047ba     0x2  Data  Lc  MclObserver.obj [2]
Pi__Calculate           0x0802cf4b    0x7a  Code  Gb  Pi.obj [2]
Pi__GetOutput           0x0802cfdf     0x6  Code  Gb  Pi.obj [2]
Pi__Initialize          0x0802cf41     0xa  Code  Gb  Pi.obj [2]
Pi__SetOutput           0x0802cfd1     0x4  Code  Gb  Pi.obj [2]
Pi__SetReference        0x0802cfd5     0x4  Code  Gb  Pi.obj [2]
Pi__SetSaturation       0x0802cfd9     0x6  Code  Gb  Pi.obj [2]
PilotPump               0x08028e13    0xcc  Code  Lc  AlternateCtrl.obj [2]
PilotRelayFaultMonitor__CycleStarted
                        0x08011ce3     0xc  Code  Gb  PilotRelayFaultMonitor.obj [2]
PilotRelayFaultMonitor__Execution
                        0x08011c85    0x5e  Code  Gb  PilotRelayFaultMonitor.obj [2]
PilotRelayFaultMonitor__Execution::pilot_relay_prev_state
                        0x200048d7     0x1  Data  Lc  PilotRelayFaultMonitor.obj [2]
PilotRelayFaultMonitor__GetConsistency
                        0x08011cef     0x6  Code  Gb  PilotRelayFaultMonitor.obj [2]
PilotRelayFaultMonitor__GetStabilizationCounter
                        0x08011cf5     0x6  Code  Gb  PilotRelayFaultMonitor.obj [2]
PilotRelayFaultMonitor__Initialize
                        0x08011c39    0x4c  Code  Gb  PilotRelayFaultMonitor.obj [2]
PilotRelayFaultMonitor__RestartStabilizationCounter
                        0x08011cfb     0x8  Code  Gb  PilotRelayFaultMonitor.obj [2]
PilotRelayStuckClosedMonitorExecute
                        0x0801cd3b    0x26  Code  Lc  PilotRelayStuckClosedMonitor.obj [2]
PilotRelayStuckClosedMonitorInitialize
                        0x0801cd61     0xe  Code  Lc  PilotRelayStuckClosedMonitor.obj [2]
PilotRelayStuckClosedMonitor__CycleStarted
                        0x0801cc25     0x8  Code  Gb  PilotRelayStuckClosedMonitor.obj [2]
PilotRelayStuckClosedMonitor__Execution
                        0x0801cc1d     0x8  Code  Gb  PilotRelayStuckClosedMonitor.obj [2]
PilotRelayStuckClosedMonitor__Initialize
                        0x0801cc15     0x8  Code  Gb  PilotRelayStuckClosedMonitor.obj [2]
PilotRelayStuckOpenMonitorExecute
                        0x0801ce9b    0x26  Code  Lc  PilotRelayStuckOpenMonitor.obj [2]
PilotRelayStuckOpenMonitorInitialize
                        0x0801cec1     0xe  Code  Lc  PilotRelayStuckOpenMonitor.obj [2]
PilotRelayStuckOpenMonitor__CycleStarted
                        0x0801cd85     0x8  Code  Gb  PilotRelayStuckOpenMonitor.obj [2]
PilotRelayStuckOpenMonitor__Execution
                        0x0801cd7d     0x8  Code  Gb  PilotRelayStuckOpenMonitor.obj [2]
PilotRelayStuckOpenMonitor__Initialize
                        0x0801cd75     0x8  Code  Gb  PilotRelayStuckOpenMonitor.obj [2]
Pilot_Relay_Consistency
                        0x200048d3     0x1  Data  Lc  PilotRelayFaultMonitor.obj [2]
Pilot_Relay_Fault_Monitor_Is_Active
                        0x200048d6     0x1  Data  Lc  PilotRelayFaultMonitor.obj [2]
Pilot_Relay_Prev_Consistency
                        0x200048d4     0x1  Data  Lc  PilotRelayFaultMonitor.obj [2]
Pilot_Relay_Stabilization_Counter
                        0x200048d5     0x1  Data  Lc  PilotRelayFaultMonitor.obj [2]
Pilot_Relay_Stuck_Closed_Monitor_State
                        0x20004f94     0x1  Data  Lc  PilotRelayStuckClosedMonitor.obj [2]
Pilot_Relay_Stuck_Open_Monitor_State
                        0x20004f95     0x1  Data  Lc  PilotRelayStuckOpenMonitor.obj [2]
Pilot_State             0x20004cc6     0x1  Data  Lc  TriacShortedDrainFaultMonitor.obj [2]
Platform_Most_Recent_Cycle_Stats_Ptr
                        0x20004f64     0x4  Data  Lc  StatisticsDish.obj [2]
PluggingModel__Execute  0x0802582f   0x2aa  Code  Gb  Plugging_Model.obj [2]
PluggingMonitor_AlgorithmState
                        0x20004868     0x1  Data  Lc  PluggingMonitor.obj [2]
PluggingMonitor_Data    0x20004ebc     0x8  Data  Lc  Plugging_Model.obj [2]
PluggingMonitor_ModelData_
                        0x2000486c     0x4  Data  Lc  PluggingMonitor.obj [2]
PluggingMonitor_Status  0x2000485f     0x1  Data  Lc  PluggingMonitor.obj [2]
PluggingMonitor_TimerHandle
                        0x20004860     0x2  Data  Lc  PluggingMonitor.obj [2]
PluggingMonitor__Execution
                        0x0801b6e7    0x20  Code  Gb  PluggingMonitor.obj [2]
PluggingMonitor__GetModelData
                        0x0801b611     0xc  Code  Gb  PluggingMonitor.obj [2]
PluggingMonitor__GetStatus
                        0x0801b647     0x6  Code  Gb  PluggingMonitor.obj [2]
PluggingMonitor__GetTimerState
                        0x0801b605     0xc  Code  Gb  PluggingMonitor.obj [2]
PluggingMonitor__Initialize
                        0x0801b64d    0x9a  Code  Gb  PluggingMonitor.obj [2]
PluggingMonitor__Pause  0x0801b717     0x8  Code  Gb  PluggingMonitor.obj [2]
PluggingMonitor__Reset  0x0801b727    0x16  Code  Gb  PluggingMonitor.obj [2]
PluggingMonitor__Resume
                        0x0801b71f     0x8  Code  Gb  PluggingMonitor.obj [2]
PluggingMonitor__SetModelData
                        0x0801b641     0x6  Code  Gb  PluggingMonitor.obj [2]
PluggingMonitor__SetRiskDelayTimer
                        0x0801b62d     0xe  Code  Gb  PluggingMonitor.obj [2]
PluggingMonitor__SetStatus
                        0x0801b63b     0x6  Code  Gb  PluggingMonitor.obj [2]
PluggingMonitor__Start  0x0801b707     0x8  Code  Gb  PluggingMonitor.obj [2]
PluggingMonitor__Stop   0x0801b70f     0x8  Code  Gb  PluggingMonitor.obj [2]
Plugging_Enabled        0x2000485c     0x1  Data  Lc  PluggingMonitor.obj [2]
Plugging_ModelRecoveryData
                        0x200002d4     0x8  Data  Lc  PluggingMonitor.obj [2]
Plugging_Model_initialize
                        0x08025ae1     0x6  Code  Gb  Plugging_Model.obj [2]
Plugging_Paused         0x2000485d     0x1  Data  Lc  PluggingMonitor.obj [2]
Plugging_Reset          0x2000485e     0x1  Data  Lc  PluggingMonitor.obj [2]
Plugging__GetResetStatus
                        0x0801b61d    0x10  Code  Gb  PluggingMonitor.obj [2]
Plugging__SFData        0x20004850     0xc  Data  Lc  PluggingMonitor.obj [2]
Plugging__SFData_Ptr    0x20004864     0x4  Data  Lc  PluggingMonitor.obj [2]
Pnt_Rx_Buffer           0x20004db4     0x4  Data  Lc  API007App.obj [2]
Position                0x20004e90     0x4  Data  Lc  ExpansionLLI.obj [2]
Positional_Loads_Status_Bitmap
                        0x200041d4     0x4  Data  Gb  DishAuxVar.obj [2]
Power_Loss_Occurring    0x20004978     0x1  Data  Gb  TriacVoltageMonitor.obj [2]
PredictNextStatement    0x0800a17b    0x62  Code  Lc  Estimator.obj [2]
Prefault_Id             0x20004d9a     0x1  Data  Gb  Fault.obj [2]
Prescaler_Param         0x200047bc     0x4  Data  Lc  MclObserver.obj [2]
Prev_Curr               0x20004d1e     0x2  Data  Lc  MclInputProc.obj [2]
Prev_Cycle_Name         0x20004eae     0x2  Data  Lc  OWIMonitor.obj [2]
Prev_Diverter_Fb_Status
                        0x20004e78     0x1  Data  Lc  DiverterFaultMonitor.obj [2]
Prev_Diverter_Should_Stop
                        0x20004e76     0x1  Data  Lc  DiverterFaultMonitor.obj [2]
Prev_Filt_Volt          0x200047b8     0x2  Data  Lc  MclObserver.obj [2]
Prev_Rx_Msg_Count       0x20004304    0x10  Data  Lc  Win.obj [2]
Previous_Cartridge_Switch1_Status
                        0x200049ca     0x1  Data  Lc  CartridgeDetectionMonitor.obj [2]
Previous_Door_Status    0x20000422     0x1  Data  Lc  DoorMonitor.obj [2]
Previous_Drain_Motor_Speed
                        0x200001f2     0x2  Data  Lc  PumpControl.obj [2]
Previous_HHP_Door_Check
                        0x200002e6     0x1  Data  Gb  DishAuxVar.obj [2]
Previous_Input          0x20004e3e     0x1  Data  Lc  MciZeroCross.obj [2]
Previous_Wash_Motor_Speed
                        0x200001f0     0x2  Data  Lc  PumpControl.obj [2]
ProbeInput_Allocation   0x20004f29     0x1  Data  Lc  ProbeInput.obj [2]
ProbeInput_InitializeInstance
                        0x08033033    0x1c  Code  Gb  ProbeInput.obj [2]
ProbeInput_LLI_Sequence
                        0x20004f2a     0x1  Data  Lc  ProbeInput.obj [2]
ProbeInput__Allocate    0x08033021    0x12  Code  Gb  ProbeInput.obj [2]
ProbeInput__AsynchProcess
                        0x08033053    0x24  Code  Gb  ProbeInput.obj [2]
ProbeInput__Get         0x0803304f     0x4  Code  Gb  ProbeInput.obj [2]
ProbeInput__GetConverted
                        0x0803307d    0xa2  Code  Gb  ProbeInput.obj [2]
ProbeInput__Initialize  0x0803300d    0x14  Code  Gb  ProbeInput.obj [2]
ProcessSamples          0x0800cbe1   0x2c4  Code  Lc  OwiVroRead.obj [2]
Process_Completed       0x20004dc6     0x1  Data  Lc  Heat.obj [2]
Process_Completed       0x2000426b     0x1  Data  Lc  OWICalibrationProcess.obj [2]
Process_Function        0x0803348c    0x40  Data  Gb  Interpreter.obj [2]
Process_Initialize_Function
                        0x08005810    0x40  Data  Gb  Interpreter.obj [2]
ProductInfo__GetNumProjects
                        0x0802eaf5    0x1c  Code  Gb  ProductInfo.obj [2]
ProductInfo__GetProjectData
                        0x0802eaa9    0x4c  Code  Gb  ProductInfo.obj [2]
ProductInfo__GetProjectIDs
                        0x0802eb11    0x1c  Code  Gb  ProductInfo.obj [2]
Program_Heading_Pointers
                        0x08007ecc    0x18  Data  Gb  Selector.obj [2]
ProgrammingDo           0x080046e9   0x156  Code  Lc  Supervisor.obj [2]
ProgrammingEntry        0x0800483f    0x60  Code  Lc  Supervisor.obj [2]
Programming_Measurment_Done
                        0x20004dfb     0x1  Data  Lc  RinseAidMonitor.obj [2]
Ptr_Sup_Ext_Mon_Data    0x20004f08     0x4  Data  Lc  SupervisorExtMonitor.obj [2]
PublishACULoads         0x080092d5    0x2a  Code  Lc  API012Exp.obj [2]
PublishApplianceData    0x0802e6c7    0x28  Code  Lc  API019ProductInfo.obj [2]
PublishBoardData        0x0802e6ef    0x5e  Code  Lc  API019ProductInfo.obj [2]
PublishData             0x0802ef4d    0x98  Code  Lc  API005LowLevel.obj [2]
PublishMode             0x0800950f     0x8  Code  Lc  Mode.obj [2]
PublishNextMetadata     0x0802d7e5    0x94  Code  Lc  API010PollVar.obj [2]
PublishNextPacket       0x0802d955    0xc4  Code  Lc  API010PollVar.obj [2]
PublishProductConfigurationData
                        0x0802ea4b    0x46  Code  Lc  API019ProductInfo.obj [2]
PublishProjectData      0x0802e751   0x1c0  Code  Lc  API019ProductInfo.obj [2]
PublishRevealNodes      0x08032703    0x20  Code  Lc  API003Disc.obj [2]
PublishSegmentInfo      0x08027a57    0x52  Code  Lc  API007Data.obj [2]
PublishSegmentList      0x08027a01    0x56  Code  Lc  API007Data.obj [2]
PublishServicetData     0x0802e94f    0x66  Code  Lc  API019ProductInfo.obj [2]
PublishSettingFileDisplacementData
                        0x08027c49    0x6c  Code  Lc  API007Data.obj [2]
PublishSettingFileDisplacementInfo
                        0x08027bd5    0x70  Code  Lc  API007Data.obj [2]
PublishSettingFileIDData
                        0x08027b7b    0x5a  Code  Lc  API007Data.obj [2]
PublishSettingFileIDInfo
                        0x08027b35    0x46  Code  Lc  API007Data.obj [2]
PublishSettingFileInfo  0x08027aa9    0x8c  Code  Lc  API007Data.obj [2]
PublishSignatureData    0x0802ea0b    0x40  Code  Lc  API019ProductInfo.obj [2]
PublishTestCycleEngaged
                        0x080092ff    0x42  Code  Lc  API012Exp.obj [2]
PublishTestData         0x0802e91d    0x32  Code  Lc  API019ProductInfo.obj [2]
PublishUISettingFileData
                        0x08027cb5    0x48  Code  Lc  API007Data.obj [2]
Publish_Digital_Input   0x08029f15    0x32  Code  Lc  APIMotorControl.obj [2]
Publish_Error           0x08029f47    0x32  Code  Lc  APIMotorControl.obj [2]
PulseCounterLLI_Allocation
                        0x200049a8     0x1  Data  Lc  PulseCounterLLI.obj [2]
PulseCounterLLI_Data    0x20004990    0x18  Data  Lc  PulseCounterLLI.obj [2]
PulseCounterLLI__Allocate
                        0x080313cd    0x12  Code  Gb  PulseCounterLLI.obj [2]
PulseCounterLLI__GetCount
                        0x08031491    0x18  Code  Gb  PulseCounterLLI.obj [2]
PulseCounterLLI__ICProcess
                        0x080314a9    0xbe  Code  Gb  PulseCounterLLI.obj [2]
PulseCounterLLI__Initialize
                        0x080313b9    0x14  Code  Gb  PulseCounterLLI.obj [2]
PulseCounterLLI__InitializeInstance
                        0x080313df    0xb2  Code  Gb  PulseCounterLLI.obj [2]
PulseCounterLLI__OneMsProcess
                        0x08031567   0x138  Code  Gb  PulseCounterLLI.obj [2]
Pulse_Count             0x20004c1c     0x2  Data  Lc  FillValveStuckOn.obj [2]
Pulse_Count_Old         0x20004c1e     0x2  Data  Lc  FillValveStuckOn.obj [2]
Pulse_Counter_Ref       0x20004f3a     0x2  Data  Gb  DishAuxVar.obj [2]
PumpCommand__Deblocking
                        0x0801db59    0x2c  Code  Gb  PumpCommand.obj [2]
PumpCommand__MaintainPreviousCommand
                        0x0801db19    0x14  Code  Gb  PumpCommand.obj [2]
PumpCommand__Run        0x0801db2d    0x2c  Code  Gb  PumpCommand.obj [2]
PumpCommand__Stop       0x0801db85    0x1e  Code  Gb  PumpCommand.obj [2]
PumpCommand__StopWithDefDecel
                        0x0801dba5    0x1c  Code  Gb  PumpCommand.obj [2]
PumpControlExecute      0x08013a25    0x3e  Code  Lc  PumpControl.obj [2]
PumpControlInitialize   0x08013a63    0x12  Code  Lc  PumpControl.obj [2]
PumpControlTerminate    0x08013a75     0xe  Code  Lc  PumpControl.obj [2]
PumpControl__GetPreviousWashMotorSpeed
                        0x08013971     0x6  Code  Gb  PumpControl.obj [2]
PumpControl__GetVSMDrainIsRunning
                        0x08013977     0x6  Code  Gb  PumpControl.obj [2]
PumpControl__Initialize
                        0x08013899    0x28  Code  Gb  PumpControl.obj [2]
PumpControl__Process    0x080138c1    0xa4  Code  Gb  PumpControl.obj [2]
PumpControl__SetPreviousDrainMotorSpeed
                        0x0801396b     0x6  Code  Gb  PumpControl.obj [2]
PumpControl__SetPreviousWashMotorSpeed
                        0x08013965     0x6  Code  Gb  PumpControl.obj [2]
PumpControl__SetVSMDrainIsRunning
                        0x0801397d     0x2  Code  Gb  PumpControl.obj [2]
PumpFlushRequestMonitor__SetDrainStopSentFlag
                        0x0801e5e1     0x8  Code  Gb  PumpFlushRequestMonitor.obj [2]
PumpFlushRequestMonitor__SetWashPumpCtrlExecutedFlag
                        0x0801e5d1     0x8  Code  Gb  PumpFlushRequestMonitor.obj [2]
PumpFlushRequestMonitor__SetWashStopSentFlag
                        0x0801e5d9     0x8  Code  Gb  PumpFlushRequestMonitor.obj [2]
Pump_Control            0x20003f0c    0x30  Data  Lc  PumpControl.obj [2]
Pump_Control_Transitioned
                        0x20003f04     0x1  Data  Lc  PumpControl.obj [2]
Pump_Pilot_Type         0x20004105     0x1  Data  Lc  AlternateCtrl.obj [2]
Pumps_Id_Array          0x08030f3c     0x4  Data  Lc  TridgeDetergent.obj [2]
PwmHiResPilot_Allocation
                        0x200048f4     0x1  Data  Lc  PwmHiResPilot.obj [2]
PwmHiResPilot_Data      0x200048d8    0x1c  Data  Lc  PwmHiResPilot.obj [2]
PwmHiResPilot__Allocate
                        0x0802f591    0x12  Code  Gb  PwmHiResPilot.obj [2]
PwmHiResPilot__GetProcessed
                        0x0802f77b    0x20  Code  Gb  PwmHiResPilot.obj [2]
PwmHiResPilot__GetRequested
                        0x0802f75b    0x20  Code  Gb  PwmHiResPilot.obj [2]
PwmHiResPilot__GetStatus
                        0x0802f7d1    0x20  Code  Gb  PwmHiResPilot.obj [2]
PwmHiResPilot__Initialize
                        0x0802f589     0x8  Code  Gb  PwmHiResPilot.obj [2]
PwmHiResPilot__InitializeInstance
                        0x0802f5a3    0xae  Code  Gb  PwmHiResPilot.obj [2]
PwmHiResPilot__OneMsHandler
                        0x0802f79b    0x36  Code  Gb  PwmHiResPilot.obj [2]
PwmHiResPilot__Process  0x0802f681    0xda  Code  Gb  PwmHiResPilot.obj [2]
PwmHiResPilot__Request  0x0802f651    0x30  Code  Gb  PwmHiResPilot.obj [2]
PwmPilot_Allocation     0x200049c8     0x1  Data  Lc  PwmPilot.obj [2]
PwmPilot_Data           0x200049b0    0x18  Data  Lc  PwmPilot.obj [2]
PwmPilot__Allocate      0x080300ed    0x12  Code  Gb  PwmPilot.obj [2]
PwmPilot__GetProcessed  0x08030273    0x20  Code  Gb  PwmPilot.obj [2]
PwmPilot__GetRequested  0x08030253    0x20  Code  Gb  PwmPilot.obj [2]
PwmPilot__GetStatus     0x080302c9    0x20  Code  Gb  PwmPilot.obj [2]
PwmPilot__Initialize    0x080300e5     0x8  Code  Gb  PwmPilot.obj [2]
PwmPilot__InitializeInstance
                        0x080300ff    0xa8  Code  Gb  PwmPilot.obj [2]
PwmPilot__OneMsHandler  0x08030293    0x36  Code  Gb  PwmPilot.obj [2]
PwmPilot__Process       0x080301cb    0x88  Code  Gb  PwmPilot.obj [2]
PwmPilot__Request       0x080301a7    0x24  Code  Gb  PwmPilot.obj [2]
PwmStateConfig          0x08020795    0x96  Code  Lc  Timer.obj [2]
PwmTimSetDuty           0x08020759    0x2e  Code  Lc  Timer.obj [2]
QueueAddU16             0x0801ef87    0x1a  Code  Lc  SW05SoftwareTest.obj [2]
QueueAddU32             0x0801efa5    0x22  Code  Lc  SW05SoftwareTest.obj [2]
QueueAddU8              0x0801ef79     0xe  Code  Lc  SW05SoftwareTest.obj [2]
QueueAddU8Buffer        0x0801efc7    0x1a  Code  Lc  SW05SoftwareTest.obj [2]
QueueNewFeedback        0x0801ef6d     0xc  Code  Lc  SW05SoftwareTest.obj [2]
RAD_Control             0x20004ed0     0x4  Data  Lc  RinseAid.obj [2]
RAM_NOTEST_AREA$$Base   0x00000000           --   Gb  - Linker created -
RAM_NOTEST_AREA$$Limit  0x00000000           --   Gb  - Linker created -
RAM_TOTAL_SIZE {Abs}    0x00024000          Data  Gb  command line/config [3]
RAM_Test_Pointer        0x20004d30     0x4  Data  Lc  Micro.obj [2]
REGULATION_HEADER_TYPE_CONVERSION
                        0x0800af84     0x4  Data  Lc  Regulations.obj [2]
RETRY_STATE             0x0801cfe3    0xa4  Code  Lc  SensedDrainModel.obj [2]
REVEAL_PARSER           0x08016fbc    0xb0  Data  Lc  Reveal.obj [2]
Reaction_After_Max_Speed_Reduct
                        0x20000379     0x1  Data  Lc  StabilityControl.obj [2]
ReadAcuExpansionConfiguration
                        0x08009341    0x52  Code  Lc  API012Exp.obj [2]
ReadAlternateParameters
                        0x08028c21   0x1e4  Code  Lc  AlternateCtrl.obj [2]
ReadHeatParameters      0x080116f3    0xf6  Code  Lc  Heat.obj [2]
ReadLoadsControlParameters
                        0x0802ddad    0xec  Code  Lc  LoadsControl.obj [2]
ReadOwiVroParameters    0x0800ca55    0xd2  Code  Lc  OwiVroRead.obj [2]
ReadParameters          0x0801a0fb    0x22  Code  Lc  OWICalibrationProcess.obj [2]
ReadParameters          0x0801da09    0xa2  Code  Lc  PartialDrainProcess.obj [2]
ReadParameters          0x080122a9   0x1ec  Code  Lc  SensedDrainProcess.obj [2]
ReadProcessParameters   0x08028be7    0x2e  Code  Lc  AlternateCtrl.obj [2]
ReadProcessParameters   0x0800e9a7    0x52  Code  Lc  ClassAFill.obj [2]
ReadProcessParameters   0x0801196b    0x34  Code  Lc  Heat.obj [2]
ReadProcessParameters   0x0801406f    0x3c  Code  Lc  JumpIf.obj [2]
ReadProcessParameters   0x0800ba1d    0xca  Code  Lc  NormalFill.obj [2]
ReadProcessParameters   0x0800e69d    0x5a  Code  Lc  OWIOneShot.obj [2]
ReadProcessParameters   0x08013d55    0xf6  Code  Lc  PumpControl.obj [2]
ReadProcessParameters   0x080319ff    0xc4  Code  Lc  RinseAid.obj [2]
ReadProcessParameters   0x080141e7    0x2c  Code  Lc  TankDrain.obj [2]
ReadProcessParameters   0x0800ee7f    0x52  Code  Lc  TankFill.obj [2]
ReadProcessParameters   0x08030c95    0x68  Code  Lc  TridgeDetergent.obj [2]
ReadProcessParameters   0x0801a91d    0x42  Code  Lc  Vwi.obj [2]
ReadRegenerateParameters
                        0x0801a23f    0x5a  Code  Gb  Regenerate.obj [2]
ReadRinsAidLevel        0x0800d889    0xf8  Code  Gb  RinseAidMonitor.obj [2]
ReadTag                 0x0800a625    0x64  Code  Lc  CartridgeDetectionMonitor.obj [2]
ReadVWIParameters       0x0801a95f    0x50  Code  Lc  Vwi.obj [2]
Recover                 0x080079c1    0x22  Code  Lc  NVData.obj [2]
RecoverPauseResumeData  0x08006627    0x5c  Code  Lc  Interpreter.obj [2]
Refresh_Timer           0x20004b34     0x4  Data  Lc  SW05SoftwareTest.obj [2]
Regen_Fault_Params      0x20004258     0x4  Data  Lc  TriacCurrentMonitor.obj [2]
RegenerateAndSaltBitmap
                        0x200002e4     0x1  Data  Gb  Regenerate.obj [2]
RegenerateExecute       0x0801a571    0x3a  Code  Lc  Regenerate.obj [2]
RegenerateInitialize    0x0801a5ab     0x8  Code  Lc  Regenerate.obj [2]
Regenerate_Data         0x20004de8     0xc  Data  Lc  Regenerate.obj [2]
Regenerate_Nv_Data      0x200002dc     0x8  Data  Lc  Regenerate.obj [2]
Regenerate__ClearBitmapBit
                        0x0801a217    0x12  Code  Gb  Regenerate.obj [2]
Regenerate__GetBitmapBit
                        0x0801a229    0x16  Code  Gb  Regenerate.obj [2]
Regenerate__GetNumRegeneration
                        0x0801a1ff     0x6  Code  Gb  Regenerate.obj [2]
Regenerate__Initialize  0x0801a14d    0x2e  Code  Gb  Regenerate.obj [2]
Regenerate__Process     0x0801a17b    0x84  Code  Gb  Regenerate.obj [2]
Regenerate__SetBitmapBit
                        0x0801a205    0x12  Code  Gb  Regenerate.obj [2]
RegenerationClosureDo   0x0801a489    0x56  Code  Lc  Regenerate.obj [2]
RegenerationClosureEntry
                        0x0801a479     0xc  Code  Lc  Regenerate.obj [2]
Region$$Table$$Base     0x080335d4           --   Gb  - Linker created -
Region$$Table$$Limit    0x08033684           --   Gb  - Linker created -
RegulationAccept__Background
                        0x08024719    0x46  Code  Gb  RegulationAccept.obj [2]
Regulation_Callback_Control_Structure
                        0x0800af88     0x8  Data  Lc  Regulations.obj [2]
Regulation_Callback_Control_Structure_Registry
                        0x20004b08    0x18  Data  Lc  Regulations.obj [2]
Regulation_Dummy        0x080336b4     0x1  Data  Lc  Variable.obj [2]
Regulations_Config      0x20004ec8     0x4  Data  Lc  Regulations.obj [2]
Regulations_Index_Buffer
                        0x200002e8    0x2c  Data  Lc  Regulations.obj [2]
Regulations_Index_Request_Buffer
                        0x20000314    0x2c  Data  Lc  Regulations.obj [2]
Regulations__AcceptRequestByPosition
                        0x0800ace9    0x58  Code  Gb  Regulations.obj [2]
Regulations__GetFunctionIDByPosition
                        0x0800ac0f    0x32  Code  Gb  Regulations.obj [2]
Regulations__GetIndexBufferPtr
                        0x0800ada1     0x4  Code  Gb  Regulations.obj [2]
Regulations__GetIndexOfMainValueByPosition
                        0x0800ad69    0x38  Code  Gb  Regulations.obj [2]
Regulations__GetIndexValueByPosition
                        0x0800ac7d    0x26  Code  Gb  Regulations.obj [2]
Regulations__GetMainValueByPosition
                        0x0800adcf    0x38  Code  Gb  Regulations.obj [2]
Regulations__GetMainValueByPositionPlusIndex
                        0x0800ae07    0x36  Code  Gb  Regulations.obj [2]
Regulations__GetMainValueTypeByPosition
                        0x0800ae75    0x18  Code  Gb  Regulations.obj [2]
Regulations__GetPositionByFunctionID
                        0x0800aba5    0x6a  Code  Gb  Regulations.obj [2]
Regulations__GetRegulationConfig
                        0x0800ac47    0x2e  Code  Gb  Regulations.obj [2]
Regulations__GetRequestedMainValueByPosition
                        0x0800ae3d    0x38  Code  Gb  Regulations.obj [2]
Regulations__GetTotalSize
                        0x0800ac41     0x6  Code  Gb  Regulations.obj [2]
Regulations__Initialize
                        0x0800aad5    0xd0  Code  Gb  Regulations.obj [2]
Regulations__IsRegulationChanged
                        0x0800acad    0x34  Code  Gb  Regulations.obj [2]
Regulations__RejectRequestByPosition
                        0x0800ad41    0x28  Code  Gb  Regulations.obj [2]
Regulations__SetRequestIndexBuffer
                        0x0800ada5    0x2a  Code  Gb  Regulations.obj [2]
Reinit                  0x0801a9af    0x20  Code  Lc  Vwi.obj [2]
Remote_Mode             0x200048f8     0x1  Data  Lc  Mode.obj [2]
Remote_SubMode          0x20004f8f     0x1  Data  Lc  Mode.obj [2]
RemoveFault             0x080136ed    0x3a  Code  Lc  API018Diagnostic.obj [2]
RemoveFault             0x08023cbd    0x24  Code  Lc  CommunicationMonitor.obj [2]
RemoveLeakageFault      0x0801c807     0xa  Code  Lc  HeaterLeakageMonitor.obj [2]
RemoveMemoryMappedVariable
                        0x0802d8cb    0x26  Code  Lc  API010PollVar.obj [2]
RemoveOpenFault         0x0801c259     0xa  Code  Lc  ThermistorOpenMonitor.obj [2]
RemoveShortedFault      0x0801c399     0xa  Code  Lc  ThermistorShortedMonitor.obj [2]
ReportFault             0x08023c75    0x24  Code  Lc  CommunicationMonitor.obj [2]
RequestSFDisplacementData
                        0x08020e49    0x5c  Code  Lc  SFUpdater.obj [2]
Request_Cycle_Names_Compartment
                        0x2000425f     0x1  Data  Lc  API011AppCtrl.obj [2]
Request_Cycle_Names_Current_Index
                        0x20004261     0x1  Data  Lc  API011AppCtrl.obj [2]
Request_Cycle_Names_Invalid_Cycles_Counter
                        0x20004263     0x1  Data  Lc  API011AppCtrl.obj [2]
Request_Cycle_Names_Max_Index
                        0x20004262     0x1  Data  Lc  API011AppCtrl.obj [2]
Request_Cycle_Names_Selector_Regulation
                        0x20004260     0x1  Data  Lc  API011AppCtrl.obj [2]
Request_Phase_Names_Compartment
                        0x20004264     0x1  Data  Lc  API011AppCtrl.obj [2]
Request_Phase_Names_Current_Index
                        0x20004266     0x1  Data  Lc  API011AppCtrl.obj [2]
Request_Phase_Names_Cycle
                        0x20004265     0x1  Data  Lc  API011AppCtrl.obj [2]
Request_Phase_Names_Max_Index
                        0x20004267     0x1  Data  Lc  API011AppCtrl.obj [2]
RequestedAPIsCanBeBlocked
                        0x08016ecd    0x3a  Code  Lc  Reveal.obj [2]
Requested_Sub_Cycle     0x20004efc     0x1  Data  Lc  SubCycle.obj [2]
Requested_Sub_Mode      0x200048fa     0x1  Data  Lc  Mode.obj [2]
Requested_Test_Cycle    0x20004f9b     0x1  Data  Lc  TestMgr.obj [2]
RequestsChanged         0x0801be67    0x20  Code  Lc  TriacVoltageMonitor.obj [2]
Reset                   0x0801de69     0xe  Code  Gb  OWIVoltageRegulatedOutputModel.obj [2]
Reset                   0x0800489f    0x2c  Code  Lc  Supervisor.obj [2]
ResetAFSubcycleExecution
                        0x0800eb63     0x8  Code  Lc  ClassAFill.obj [2]
ResetAFSubcycleExecution
                        0x0800ef91     0x8  Code  Lc  TankFill.obj [2]
ResetAlgorithm          0x0801a885    0x30  Code  Lc  Vwi.obj [2]
ResetCalibration        0x0801a8b5    0x12  Code  Lc  Vwi.obj [2]
ResetClosedFailure      0x0801cc89     0xa  Code  Lc  PilotRelayStuckClosedMonitor.obj [2]
ResetCrossLoadTransition
                        0x08022cff    0x46  Code  Lc  CrossLoads.obj [2]
ResetF8E5Prefault       0x0800f2e3     0xa  Code  Lc  FillValveStuckOn.obj [2]
ResetFailureDetection   0x0800f9fd    0x4c  Code  Lc  TriacCurrentMonitor.obj [2]
ResetFailureDetection   0x0802437f     0xa  Code  Lc  TriacShortedDrainFaultMonitor.obj [2]
ResetFailuresDetection  0x0801c68f     0xa  Code  Lc  HeaterLineRelayOpenMonitor.obj [2]
ResetFailuresDetection  0x0801c519     0xa  Code  Lc  HeaterNeutralRelayOpenMonitor.obj [2]
ResetFailuresDetection  0x0801cb2b     0xa  Code  Lc  HeaterOpenAndLineRelayClosedMonitor.obj [2]
ResetFailuresDetection  0x0801c98d     0xa  Code  Lc  HeaterOpenMonitor.obj [2]
ResetInstabilityEvent   0x0800d527    0x12  Code  Lc  StabilityControl.obj [2]
ResetOpenFailure        0x0801cde9     0xa  Code  Lc  PilotRelayStuckOpenMonitor.obj [2]
ResetPublisher          0x0802da19    0x12  Code  Lc  API010PollVar.obj [2]
ResetSubcycleExecution  0x0800eb6b     0x8  Code  Lc  ClassAFill.obj [2]
ResetSubcycleExecution  0x08014213     0x8  Code  Lc  TankDrain.obj [2]
ResetTasks              0x080048cb     0xc  Code  Lc  Supervisor.obj [2]
Reset_Node_Handler      0x20004704     0x4  Data  Gb  Reveal.obj [2]
Reset_Param             0x200045fa     0x2  Data  Lc  MclFireAngleCtrl.obj [2]
RestartStabilizationTime
                        0x0801c823     0x8  Code  Lc  HeaterLeakageMonitor.obj [2]
RestartStabilizationTime
                        0x0801c6ab     0x8  Code  Lc  HeaterLineRelayOpenMonitor.obj [2]
RestartStabilizationTime
                        0x0801c535     0x8  Code  Lc  HeaterNeutralRelayOpenMonitor.obj [2]
RestartStabilizationTime
                        0x0801cb47     0x8  Code  Lc  HeaterOpenAndLineRelayClosedMonitor.obj [2]
RestartStabilizationTime
                        0x0801c9a9     0x8  Code  Lc  HeaterOpenMonitor.obj [2]
Restart_Cnt             0x20003de8     0x2  Data  Gb  Mcl.obj [2]
Restore                 0x080077c9   0x17c  Code  Lc  NVData.obj [2]
RestoreFromSubCycleResumeData
                        0x08006503    0x5e  Code  Lc  Interpreter.obj [2]
RestoreSfReferences     0x080052f1    0xf4  Code  Lc  Fault.obj [2]
RestoreStaticData       0x0800777d    0x2e  Code  Lc  NVData.obj [2]
Result                  0x20004268     0x1  Data  Lc  OWICalibrationProcess.obj [2]
Resume                  0x080048d7    0x1c  Code  Lc  Supervisor.obj [2]
ReturnTRUE              0x08028e05     0xe  Code  Lc  AlternateCtrl.obj [2]
ReturnTRUE              0x0801199f     0xe  Code  Lc  Heat.obj [2]
ReturnTRUE              0x0800e6f7     0xe  Code  Lc  OWIOneShot.obj [2]
ReturnTRUE              0x08013a93    0x10  Code  Lc  PumpControl.obj [2]
ReturnTRUE              0x08031ac3     0xe  Code  Lc  RinseAid.obj [2]
Reveal1sTasks           0x0801706d    0x34  Code  Lc  Reveal.obj [2]
RevealAppendMetadata    0x0802d87d    0x4e  Code  Lc  API010PollVar.obj [2]
RevealHandleAckParser   0x08016f09    0x4a  Code  Lc  Reveal.obj [2]
RevealHandleParser      0x08016f55    0x66  Code  Lc  Reveal.obj [2]
RevealHandlerIncomming  0x080166f1   0x3e4  Code  Lc  Reveal.obj [2]
RevealHandlerOutgoing   0x08016ae9   0x3b0  Code  Lc  Reveal.obj [2]
Reveal_1s               0x20004700     0x2  Data  Lc  Reveal.obj [2]
Reveal_Ack_Buffer       0x200046d8    0x10  Data  Lc  Reveal.obj [2]
Reveal_Ack_Read         0x20003b9c     0x1  Data  Lc  Reveal.obj [2]
Reveal_Ack_Write        0x20003b9b     0x1  Data  Lc  Reveal.obj [2]
Reveal_Adapter_Buffer   0x20003728   0x100  Data  Lc  Reveal.obj [2]
Reveal_Blocked_Messages
                        0x20003bcc    0x4c  Data  Lc  Reveal.obj [2]
Reveal_Blocked_Messages_Remaining_Time
                        0x20003bc8     0x2  Data  Lc  Reveal.obj [2]
Reveal_Drop_flag        0x20003b9f     0x1  Data  Lc  Reveal.obj [2]
Reveal_Heartbeat_Counter
                        0x200046fe     0x2  Data  Lc  Reveal.obj [2]
Reveal_Heartbeat_Node_Counter
                        0x200046ec    0x10  Data  Lc  Reveal.obj [2]
Reveal_Heartbeat_Timer  0x20003bbe     0x2  Data  Lc  Reveal.obj [2]
Reveal_Min_Space        0x20003b9e     0x1  Data  Lc  Reveal.obj [2]
Reveal_Node_Status      0x20003bc6     0x2  Data  Lc  Reveal.obj [2]
Reveal_Outgoing_State   0x20003b9d     0x1  Data  Lc  Reveal.obj [2]
Reveal_Priority_Min_Space
                        0x20003b9a     0x1  Data  Lc  Reveal.obj [2]
Reveal_Priority_Queue_Full_Counter
                        0x200046fc     0x2  Data  Lc  Reveal.obj [2]
Reveal_Priority_Realign_Counter
                        0x20003bbc     0x2  Data  Lc  Reveal.obj [2]
Reveal_Priority_Self_Drop_Counter
                        0x20003bba     0x2  Data  Lc  Reveal.obj [2]
Reveal_Queue            0x200022c8   0x40c  Data  Lc  Reveal.obj [2]
Reveal_Queue_Debounce   0x20003ba0    0x10  Data  Lc  Reveal.obj [2]
Reveal_Queue_Full_Counter
                        0x20003bc0     0x2  Data  Lc  Reveal.obj [2]
Reveal_Queue_Priority   0x20002fdc   0x15c  Data  Lc  Reveal.obj [2]
Reveal_Queue_Priority_Debounce
                        0x20003bb0     0x8  Data  Lc  Reveal.obj [2]
Reveal_Queue_Priority_Read
                        0x20003b99     0x1  Data  Lc  Reveal.obj [2]
Reveal_Queue_Priority_Write
                        0x20003b98     0x1  Data  Lc  Reveal.obj [2]
Reveal_Queue_Read       0x20003b95     0x1  Data  Lc  Reveal.obj [2]
Reveal_Queue_Retry      0x20003b96     0x1  Data  Lc  Reveal.obj [2]
Reveal_Queue_Timeout    0x20003bb8     0x2  Data  Lc  Reveal.obj [2]
Reveal_Queue_Write      0x20003b94     0x1  Data  Lc  Reveal.obj [2]
Reveal_Realign_Counter  0x20003bc4     0x2  Data  Lc  Reveal.obj [2]
Reveal_Self_Drop_Counter
                        0x20003bc2     0x2  Data  Lc  Reveal.obj [2]
Reveal_Self_Queue       0x20002c08   0x1fc  Data  Lc  Reveal.obj [2]
Reveal_Self_Queue_Debounce
                        0x200046e8     0x2  Data  Lc  Reveal.obj [2]
Reveal_Self_Queue_Idx   0x20003b97     0x1  Data  Lc  Reveal.obj [2]
Reveal__AddDataU16      0x080163a9    0x2c  Code  Gb  Reveal.obj [2]
Reveal__AddDataU32      0x080163d5    0x34  Code  Gb  Reveal.obj [2]
Reveal__AddDataU8       0x08016345    0x26  Code  Gb  Reveal.obj [2]
Reveal__AddDataU8Buffer
                        0x0801636b    0x3e  Code  Gb  Reveal.obj [2]
Reveal__GetFreeQueueSpace
                        0x080165a9    0x26  Code  Gb  Reveal.obj [2]
Reveal__GetMinimumPriorityQueueSpace
                        0x0801632d     0x6  Code  Gb  Reveal.obj [2]
Reveal__GetMinimumQueueSpace
                        0x08016327     0x6  Code  Gb  Reveal.obj [2]
Reveal__GetNodestatus   0x080165f7     0x6  Code  Gb  Reveal.obj [2]
Reveal__GetNumMessagesQueue
                        0x080165cf    0x28  Code  Gb  Reveal.obj [2]
Reveal__Handler         0x08016209    0x10  Code  Gb  Reveal.obj [2]
Reveal__Handler1ms      0x08016219    0x54  Code  Gb  Reveal.obj [2]
Reveal__Initialize      0x08016155    0xb4  Code  Gb  Reveal.obj [2]
Reveal__NewCommand      0x08016313    0x14  Code  Gb  Reveal.obj [2]
Reveal__NewFeedback     0x0801626d    0xa6  Code  Gb  Reveal.obj [2]
Reveal__QueueCommand    0x08016409   0x19a  Code  Gb  Reveal.obj [2]
Reveal__QueueMessageU8  0x08016609    0x32  Code  Gb  Reveal.obj [2]
RinseAidDispense        0x20000340     0xc  Data  Lc  RinseAid.obj [2]
RinseAidDispenseExecute
                        0x08031ba3    0x34  Code  Lc  RinseAid.obj [2]
RinseAidDispenseInitialize
                        0x08031bd7    0x12  Code  Lc  RinseAid.obj [2]
RinseAidDispenseTerminate
                        0x08031be9     0xc  Code  Lc  RinseAid.obj [2]
RinseAidDispense_Ready_To_Exit
                        0x20004ece     0x1  Data  Lc  RinseAid.obj [2]
RinseAidDispense__Initialize
                        0x0803329b     0xc  Code  Gb  RinseAidDispense.obj [2]
RinseAidDispense__Process
                        0x080332a7    0x7a  Code  Gb  RinseAidDispense.obj [2]
RinseAidMonitor__CheckEvent
                        0x0800d881     0x8  Code  Gb  RinseAidMonitor.obj [2]
RinseAidMonitor__Execution
                        0x0800d845    0x3c  Code  Gb  RinseAidMonitor.obj [2]
RinseAidMonitor__Initialize
                        0x0800d7d9    0x6c  Code  Gb  RinseAidMonitor.obj [2]
RinseAid_Dispenser_Use_Cnt
                        0x20000429     0x1  Data  Gb  RinseAidMonitor.obj [2]
RinseAid_IsUnlocked     0x2000042a     0x1  Data  Lc  RinseAidMonitor.obj [2]
RinseAid_Tag_Operating_Temperature
                        0x2000477e     0x1  Data  Gb  CartridgeDetectionMonitor.obj [2]
RinseAid__Initialize    0x08031975    0x24  Code  Gb  RinseAid.obj [2]
RinseAid__Manager       0x08031999    0x66  Code  Gb  RinseAid.obj [2]
Rinse_Aid_Dispense_State
                        0x20004ecc     0x1  Data  Lc  RinseAid.obj [2]
Rinse_Aid_Dispense_Transitioned
                        0x20004ecd     0x1  Data  Lc  RinseAid.obj [2]
Rinse_Aid_Status        0x20004df8     0x1  Data  Gb  RinseAidMonitor.obj [2]
Rinse_Aid_Timer         0x20004dfc     0x4  Data  Lc  RinseAidMonitor.obj [2]
Rotor_State_Deb         0x200045e0     0x1  Data  Lc  MclFireAngleCtrl.obj [2]
RtcByteToBcd2           0x0803242d    0x16  Code  Lc  RtcDriver.obj [2]
RtcDriver__Initialize   0x08032255    0xce  Code  Gb  RtcDriver.obj [2]
RtcDriver__Interrupt    0x08032323    0x2c  Code  Gb  RtcDriver.obj [2]
RtcEnterInitMode        0x0803234f    0x3e  Code  Lc  RtcDriver.obj [2]
RtcExitInitMode         0x0803238d     0xc  Code  Lc  RtcDriver.obj [2]
RtcSetTime              0x080323e5    0x2c  Code  Lc  RtcDriver.obj [2]
RtcWaitForSynchro       0x08032399    0x4c  Code  Lc  RtcDriver.obj [2]
RunDo                   0x08004901   0x2aa  Code  Lc  Supervisor.obj [2]
RunEntry                0x08004bb1     0x8  Code  Lc  Supervisor.obj [2]
RunExit                 0x08004bb9     0x8  Code  Lc  Supervisor.obj [2]
RunInitialize           0x08024973     0x8  Code  Lc  StatusLed.obj [2]
Run_After_Fault_Flag    0x20004bc1     0x1  Data  Lc  AlternateLoad.obj [2]
SAMPLE_TIME_TABLE       0x0802c30c    0x14  Data  Gb  Atod.obj [2]
SCL_Data                0x20004d9c     0xc  Data  Lc  StabilityControlLoopMonitor.obj [2]
SCL_NV_Data             0x20000388     0xc  Data  Lc  StabilityControlLoopMonitor.obj [2]
SC_Max_Subcycle_Calls   0x20000370     0x8  Data  Lc  StabilityControl.obj [2]
SC_Subcycle_Execution_Counters
                        0x20000368     0x8  Data  Gb  StabilityControl.obj [2]
SD_PartialDrain_MachineConfig
                        0x20003640     0x4  Data  Lc  SensedDrainProcess.obj [2]
SD_PartialDrain_MachineDefault
                        0x20000954    0x10  Data  Lc  SensedDrainProcess.obj [2]
SEARCH_METHOD_MAP       0x080230c8     0x4  Data  Lc  HblCommon.obj [2]
SENSED_DRAIN            0x0801d0f9   0x3c0  Code  Lc  SensedDrainModel.obj [2]
SETTINGFILE_SIZE {Abs}  0x00005800          Data  Gb  command line/config [3]
SFUpdater_Displacement_Address
                        0x200047f8     0x4  Data  Lc  SFUpdater.obj [2]
SFUpdater_Displacement_Data_Index
                        0x200047f4     0x2  Data  Lc  SFUpdater.obj [2]
SFUpdater_Displacement_Reveal_Max_Size
                        0x200047d9     0x1  Data  Lc  SFUpdater.obj [2]
SFUpdater_Received_Displacement_Info
                        0x200047e8     0xc  Data  Lc  SFUpdater.obj [2]
SFUpdater_Requested_Displacement_Info
                        0x200047dc     0xc  Data  Lc  SFUpdater.obj [2]
SFUpdater_Requester_Status
                        0x200047d8     0x1  Data  Lc  SFUpdater.obj [2]
SFUpdater_Requester_Timeout
                        0x200047f6     0x2  Data  Lc  SFUpdater.obj [2]
SFUpdater_Requester_Timer
                        0x200047fc     0x4  Data  Lc  SFUpdater.obj [2]
SFUpdater__Initialize   0x08020da9    0x1e  Code  Gb  SFUpdater.obj [2]
SFUpdater__RxMaxPackage
                        0x08020dc7     0x2  Code  Gb  SFUpdater.obj [2]
SFUpdater__RxSFData     0x08020e47     0x2  Code  Gb  SFUpdater.obj [2]
SFUpdater__RxSFDisplacementData
                        0x08020e03    0x44  Code  Gb  SFUpdater.obj [2]
SFUpdater__RxSFDisplacementInfo
                        0x08020dcb    0x38  Code  Gb  SFUpdater.obj [2]
SFUpdater__RxSFInfo     0x08020dc9     0x2  Code  Gb  SFUpdater.obj [2]
SF_Calcification_Levels_Number
                        0x20003ea7     0x1  Data  Lc  HeaterCalcificationDetectionMonitor.obj [2]
SF_HCD_Lvl_Parameters   0x20003ee0     0x4  Data  Lc  HeaterCalcificationDetectionMonitor.obj [2]
SF_HCD_Parameters       0x20003edc     0x4  Data  Lc  HeaterCalcificationDetectionMonitor.obj [2]
SF_OWIVROAllParamPass   0x2000401e     0x1  Data  Lc  OWIVoltageRegulatedOutputModel.obj [2]
SIGNATURE_PTR_LIST      0x080153dc    0x1c  Data  Lc  SRMain.obj [2]
SIGNATURE_VALUES_LIST   0x08014c98    0x1c  Data  Lc  SRMain.obj [2]
SRAction_Priority_Requests
                        0x20004e00     0x4  Data  Lc  SRProductMgr.obj [2]
SRClockMonitor_Counter  0x20004d54     0x2  Data  Lc  SRClockMonitor.obj [2]
SRClockMonitor_ErrorCount
                        0x20004d4d     0x1  Data  Lc  SRClockMonitor.obj [2]
SRClockMonitor_Event    0x20004d4e     0x1  Data  Lc  SRClockMonitor.obj [2]
SRClockMonitor_Statistics
                        0x20004d50     0x4  Data  Lc  SRClockMonitor.obj [2]
SRClockMonitor__GetStatisticsData
                        0x0801ea79     0x4  Code  Gb  SRClockMonitor.obj [2]
SRClockMonitor__Initialize
                        0x0801e8f5    0x48  Code  Gb  SRClockMonitor.obj [2]
SRClockMonitor__Monitor1ms
                        0x0801e93d    0x74  Code  Gb  SRClockMonitor.obj [2]
SRClockMonitor__MonitorExtClk
                        0x0801e9b1    0xc8  Code  Gb  SRClockMonitor.obj [2]
SRClock_First_Reading   0x20004d4c     0x1  Data  Lc  SRClockMonitor.obj [2]
SRData__CheckArray      0x08014493    0xe6  Code  Gb  SRData.obj [2]
SRData__CheckArrayNonBlocking
                        0x08014579    0xd4  Code  Gb  SRData.obj [2]
SRData__CheckByte       0x0801439f    0xce  Code  Gb  SRData.obj [2]
SRData__CheckLong       0x080147b1    0xbc  Code  Gb  SRData.obj [2]
SRData__CheckShort      0x08014671   0x11a  Code  Gb  SRData.obj [2]
SRData__Fill            0x0801486d    0x2a  Code  Gb  SRData.obj [2]
SRData__UpdateArray     0x0801446d    0x26  Code  Gb  SRData.obj [2]
SRData__UpdateByte      0x08014385    0x1a  Code  Gb  SRData.obj [2]
SRData__UpdateLong      0x0801478b    0x26  Code  Gb  SRData.obj [2]
SRData__UpdateShort     0x0801464d    0x24  Code  Gb  SRData.obj [2]
SRException_Event_Data  0x20000af4    0x10  Data  Lc  SRException.obj [2]
SRException__LogLastException
                        0x08015659    0x40  Code  Gb  SRException.obj [2]
SRException__Queue      0x08015699    0x40  Code  Gb  SRException.obj [2]
SRHbl__Process          0x08018935   0x280  Code  Gb  Hbl.obj [2]
SRHbl__ResetLoadPriority
                        0x08018cb9    0x30  Code  Gb  Hbl.obj [2]
SRHbl__SetLoadRequestByIndex
                        0x08018bed    0xbc  Code  Gb  Hbl.obj [2]
SRIsrMonitor__EnterIsr  0x0801e685    0x4c  Code  Gb  SRIsrMonitor.obj [2]
SRIsrMonitor__ExitIsr   0x0801e6d1    0x2e  Code  Gb  SRIsrMonitor.obj [2]
SRIsrMonitor__GetStatisticsData
                        0x0801e897     0x8  Code  Gb  SRIsrMonitor.obj [2]
SRIsrMonitor__Handler   0x0801e6ff   0x198  Code  Gb  SRIsrMonitor.obj [2]
SRIsrMonitor__Initialize
                        0x0801e60d    0x78  Code  Gb  SRIsrMonitor.obj [2]
SRMainGeneralInitialization_Tasks
                        0x08014bc0    0x28  Data  Lc  SRMain.obj [2]
SRMainLowPowerInitialization_Tasks
                        0x08014e70     0x8  Data  Lc  SRMain.obj [2]
SRMainNormalInitialization_Tasks
                        0x08014e50    0x20  Data  Lc  SRMain.obj [2]
SRMainNormalMode1ms_Tasks
                        0x08014c88    0x10  Data  Lc  SRMain.obj [2]
SRMainNormalModeFastInterrupt_Tasks
                        0x08014ce4     0xc  Data  Lc  SRMain.obj [2]
SRMainRunning_Tasks     0x08014e80     0x8  Data  Lc  SRMain.obj [2]
SRMain_AppMgr_Handler   0x08014f78    0x24  Data  Lc  SRMain.obj [2]
SRMain_AppMgr_Initialize
                        0x08014f4c    0x2c  Data  Lc  SRMain.obj [2]
SRMain_Asynch_Handler   0x0801506c    0x14  Data  Lc  SRMain.obj [2]
SRMain_Asynch_Initialize
                        0x08015068     0x4  Data  Lc  SRMain.obj [2]
SRMain_Communication_EveryRun
                        0x080153a4    0x10  Data  Lc  SRMain.obj [2]
SRMain_Communication_Initialize
                        0x08015370    0x34  Data  Lc  SRMain.obj [2]
SRMain_Communication_Run1
                        0x080153b4     0x8  Data  Lc  SRMain.obj [2]
SRMain_Communication_Run2
                        0x080153bc     0xc  Data  Lc  SRMain.obj [2]
SRMain_Communication_Run3
                        0x080153c8     0xc  Data  Lc  SRMain.obj [2]
SRMain_Communication_Run4
                        0x080153d4     0x8  Data  Lc  SRMain.obj [2]
SRMain_Communication_Run5
                        0x080151a4     0xc  Data  Lc  SRMain.obj [2]
SRMain_FastAppMgr_Handler
                        0x08014ffc     0x4  Data  Lc  SRMain.obj [2]
SRMain_FastAppMgr_Initialize
                        0x08014ff8     0x4  Data  Lc  SRMain.obj [2]
SRMain_FastHandler_Timer
                        0x20002e04     0x8  Data  Gb  SRMain.obj [2]
SRMain_Non_Low_Power_Tasks
                        0x08014e78     0x8  Data  Lc  SRMain.obj [2]
SRMain_Programming_Handler
                        0x080150e4     0x4  Data  Lc  SRMain.obj [2]
SRMain_Programming_Initialize
                        0x080150dc     0x8  Data  Lc  SRMain.obj [2]
SRMain__FastTimerISR    0x08014cb5    0x1c  Code  Gb  SRMain.obj [2]
SRMain__TimerISR        0x08014bf5    0x92  Code  Gb  SRMain.obj [2]
SRMain__UnlockAnalogTask
                        0x08014cf1     0x2  Code  Gb  SRMain.obj [2]
SRPowerMgr_IsThisWakeUpSource
                        0x20004ed6     0x1  Data  Lc  SRPowerMgr.obj [2]
SRPowerMgr_Mode         0x20004ed4     0x1  Data  Lc  SRPowerMgr.obj [2]
SRPowerMgr_State        0x20004ed5     0x1  Data  Lc  SRPowerMgr.obj [2]
SRPowerMgr_Timeout      0x20004eda     0x2  Data  Lc  SRPowerMgr.obj [2]
SRPowerMgr_WakeUpRetry  0x20004ed8     0x1  Data  Lc  SRPowerMgr.obj [2]
SRPowerMgr_WakeUpTrig   0x20004ed9     0x1  Data  Lc  SRPowerMgr.obj [2]
SRPowerMgr__GetMode     0x08020c2b     0x6  Code  Gb  SRPowerMgr.obj [2]
SRPowerMgr__GoLowPowerMode
                        0x08020be1    0x36  Code  Gb  SRPowerMgr.obj [2]
SRPowerMgr__GoNormalMode
                        0x08020c17    0x14  Code  Gb  SRPowerMgr.obj [2]
SRPowerMgr__Handler     0x08020c3d   0x166  Code  Gb  SRPowerMgr.obj [2]
SRPowerMgr__Initialize  0x08020b91    0x50  Code  Gb  SRPowerMgr.obj [2]
SRPowerMgr__IsThisNodeWakeUpSource
                        0x08020c31     0x6  Code  Gb  SRPowerMgr.obj [2]
SRPowerMgr__ReceivedWakeUpNode
                        0x20004ed7     0x1  Data  Lc  SRPowerMgr.obj [2]
SRPowerMgr__ReceivedWakeUpNodeID
                        0x08020c37     0x6  Code  Gb  SRPowerMgr.obj [2]
SRProductMgr__Handler   0x08022e11    0xb2  Code  Gb  SRProductMgr.obj [2]
SRProductMgr__Initialize
                        0x08022d99    0x78  Code  Gb  SRProductMgr.obj [2]
SRSignature__GetClassBSignature
                        0x0802eb6d     0x4  Code  Gb  SRSignature.obj [2]
SRSignature__GetClassBSignatureSize
                        0x0802eb71     0x4  Code  Gb  SRSignature.obj [2]
SRTaskMonitor_Error     0x2000441e     0x1  Data  Lc  SRTaskMonitor.obj [2]
SRTaskMonitor_MaxSuspendTime
                        0x2000441d     0x1  Data  Gb  SRTaskMonitor.obj [2]
SRTaskMonitor_MinSuspendTime
                        0x2000441c     0x1  Data  Gb  SRTaskMonitor.obj [2]
SRTaskMonitor_Stats     0x20004424    0x20  Data  Gb  SRTaskMonitor.obj [2]
SRTaskMonitor_Status    0x20004444     0x8  Data  Lc  SRTaskMonitor.obj [2]
SRTaskMonitor_Suspend_Attempts
                        0x20004420     0x1  Data  Lc  SRTaskMonitor.obj [2]
SRTaskMonitor_Suspend_Time
                        0x2000441f     0x1  Data  Lc  SRTaskMonitor.obj [2]
SRTaskMonitor_Tasks_Counter_Ref
                        0x08016110    0x18  Data  Gb  SRTaskMonitor.obj [2]
SRTaskMonitor_Tasks_Low_Speed_Counter_Ref
                        0x08016128    0x18  Data  Gb  SRTaskMonitor.obj [2]
SRTaskMonitor__EnableMonitor
                        0x08015c21    0x9a  Code  Gb  SRTaskMonitor.obj [2]
SRTaskMonitor__Enter    0x08015d75   0x140  Code  Gb  SRTaskMonitor.obj [2]
SRTaskMonitor__Exit     0x08015eb9    0x98  Code  Gb  SRTaskMonitor.obj [2]
SRTaskMonitor__GetStatisticsData
                        0x0801608b    0x12  Code  Gb  SRTaskMonitor.obj [2]
SRTaskMonitor__Handler  0x08015cbb    0xba  Code  Gb  SRTaskMonitor.obj [2]
SRTaskMonitor__Initialize
                        0x08015bc1    0x60  Code  Gb  SRTaskMonitor.obj [2]
SRTaskMonitor__IsError  0x08015f51     0x6  Code  Gb  SRTaskMonitor.obj [2]
SRTaskMonitor__Resume   0x08015f93    0xf8  Code  Gb  SRTaskMonitor.obj [2]
SRTaskMonitor__Suspend  0x08015f57    0x3c  Code  Gb  SRTaskMonitor.obj [2]
SRTaskSequcence_NumSteps
                        0x0801563c     0x8  Data  Lc  SRTaskSequence.obj [2]
SRTaskSequence_All_Steps
                        0x08015644    0x14  Data  Lc  SRTaskSequence.obj [2]
SRTaskSequence_Appl_Init_Steps
                        0x08033550     0xc  Data  Lc  SRTaskSequence.obj [2]
SRTaskSequence_Appl_Steps
                        0x0803355c    0x14  Data  Lc  SRTaskSequence.obj [2]
SRTaskSequence_Error    0x20004458     0x1  Data  Lc  SRTaskSequence.obj [2]
SRTaskSequence_Init_Steps
                        0x08033544     0xc  Data  Lc  SRTaskSequence.obj [2]
SRTaskSequence_Main_Steps
                        0x08033578     0x4  Data  Lc  SRTaskSequence.obj [2]
SRTaskSequence_Statistics
                        0x20004464     0xc  Data  Gb  SRTaskSequence.obj [2]
SRTaskSequence_Step     0x2000445c     0x8  Data  Lc  SRTaskSequence.obj [2]
SRTaskSequence_Tick_Steps
                        0x08033570     0x8  Data  Lc  SRTaskSequence.obj [2]
SRTaskSequence_Timeout  0x20004470     0xc  Data  Lc  SRTaskSequence.obj [2]
SRTaskSequence__EndSequence
                        0x08015591    0x58  Code  Gb  SRTaskSequence.obj [2]
SRTaskSequence__Handler
                        0x08015441    0x7e  Code  Gb  SRTaskSequence.obj [2]
SRTaskSequence__Initialize
                        0x080153f9    0x46  Code  Gb  SRTaskSequence.obj [2]
SRTaskSequence__IsError
                        0x080155e9    0x22  Code  Gb  SRTaskSequence.obj [2]
SRTaskSequence__SetSequenceStep
                        0x08015529    0x66  Code  Gb  SRTaskSequence.obj [2]
SRTaskSequence__StartSequence
                        0x080154c1    0x68  Code  Gb  SRTaskSequence.obj [2]
SRTimerReference_Counter
                        0x20004edc     0x4  Data  Lc  SRTimerReference.obj [2]
SRTimerReference__Handler1ms
                        0x0801e8cb    0x26  Code  Gb  SRTimerReference.obj [2]
SRTimerReference__Initialize
                        0x0801e8b5    0x16  Code  Gb  SRTimerReference.obj [2]
SSDrain_Fault_Params    0x20004248     0x4  Data  Lc  TriacCurrentMonitor.obj [2]
STACKS$$Base            0x20023070           --   Gb  - Linker created -
STACKS$$Limit           0x20023fcc           --   Gb  - Linker created -
STACK_OVERFLOW_SIGNATURE$$Base
                        0x20023070           --   Gb  - Linker created -
STACK_OVERFLOW_SIGNATURE$$Limit
                        0x20023080           --   Gb  - Linker created -
STACK_UNDERFLOW_SIGNATURE$$Base
                        0x20023fbc           --   Gb  - Linker created -
STACK_UNDERFLOW_SIGNATURE$$Limit
                        0x20023fcc           --   Gb  - Linker created -
STATISTICS_CYCLE_REGULATION_FUNCTION_IDS
                        0x08008220    0x1c  Data  Lc  Statistics.obj [2]
STATUS_LED_PROFILE_TABLE
                        0x08024a28    0x2c  Data  Lc  StatusLed.obj [2]
SW05SoftwareTest__Execute
                        0x0801ec3d   0x32c  Code  Gb  SW05SoftwareTest.obj [2]
SW05SoftwareTest__Initialize
                        0x0801ec19    0x24  Code  Gb  SW05SoftwareTest.obj [2]
SW05_Appliance_Data     0x2000034c     0x4  Data  Lc  SW05SoftwareTest.obj [2]
SW05_Fbk                0x200041d8    0x44  Data  Lc  SW05SoftwareTest.obj [2]
SW05_Fbk_Index          0x20004b20     0x1  Data  Lc  SW05SoftwareTest.obj [2]
SW05_Static_Data        0x2000085c     0x4  Data  Lc  SW05SoftwareTest.obj [2]
SW05_Statistics_Data    0x20000454     0x4  Data  Lc  SW05SoftwareTest.obj [2]
SW05_Win_Echo           0x20004b24     0xc  Data  Lc  SW05SoftwareTest.obj [2]
SYSTEM_STACK$$Base      0x20023080           --   Gb  - Linker created -
SYSTEM_STACK$$Limit     0x20023480           --   Gb  - Linker created -
SafeToTransition        0x08025809    0x26  Code  Lc  Plugging_Model.obj [2]
SaltSensingMonitor__Execution
                        0x08023db3    0xcc  Code  Gb  SaltSensingMonitor.obj [2]
SaltSensingMonitor__GetPrevSaltGIFiltered
                        0x08023e85     0x6  Code  Gb  SaltSensingMonitor.obj [2]
SaltSensingMonitor__GetSaltGIFiltered
                        0x08023e7f     0x6  Code  Gb  SaltSensingMonitor.obj [2]
SaltSensingMonitor__Initialize
                        0x08023d5d    0x56  Code  Gb  SaltSensingMonitor.obj [2]
Salt_Alarm_Led          0x20004e48     0x1  Data  Gb  SaltSensingMonitor.obj [2]
Salt_Sensor_Data        0x20004e40     0x8  Data  Lc  SaltSensingMonitor.obj [2]
Salt_Sensor_NV_Data     0x20000350     0x4  Data  Lc  SaltSensingMonitor.obj [2]
Sanitization_Minimum_Temperature
                        0x2000026a     0x2  Data  Lc  Sanitization.obj [2]
Sanitization_Result     0x200002e7     0x1  Data  Gb  DishAuxVar.obj [2]
Sanitization__Initialize
                        0x0800d73d    0x56  Code  Gb  Sanitization.obj [2]
Sanitization__NVDataRestore
                        0x0800d793     0x8  Code  Gb  Sanitization.obj [2]
Sanitization__SetResultVariable
                        0x0800d7c5     0x6  Code  Gb  Sanitization.obj [2]
Sanitization__Task      0x0800d79b    0x28  Code  Gb  Sanitization.obj [2]
Sanitization__Terminate
                        0x0800d7c3     0x2  Code  Gb  Sanitization.obj [2]
SaveCurrentBaseline     0x08010e85     0x8  Code  Lc  HeaterShadowing.obj [2]
SaveErrorData           0x0800848b    0xd2  Code  Lc  Statistics.obj [2]
SaveOWIValues           0x0800e705    0x42  Code  Lc  OWIOneShot.obj [2]
SaveSubCycleResumeData  0x08006565    0x40  Code  Lc  Interpreter.obj [2]
SaveTagSerialNumber     0x08030e0b    0x12  Code  Lc  TridgeDetergent.obj [2]
Saved                   0x200043ac     0x4  Data  Lc  LoadsControl.obj [2]
SavedStateFind          0x0802e015    0x38  Code  Lc  LoadsControl.obj [2]
SavedStatePop           0x0802e04d    0x28  Code  Lc  LoadsControl.obj [2]
SavedStatePush          0x0802e075    0x28  Code  Lc  LoadsControl.obj [2]
SearchTableSigned       0x080217e7    0x74  Code  Lc  Convert.obj [2]
SearchTableUnsigned     0x08021773    0x74  Code  Lc  Convert.obj [2]
Segment_Info            0x20004e4c     0x8  Data  Lc  API007App.obj [2]
SelectOption            0x0802e1ab    0x7a  Code  Lc  LoadsControl.obj [2]
Selector_Data_Pointers  0x08007cb0    0x18  Data  Gb  Selector.obj [2]
Selector__GetColdResetBehavior
                        0x08007de3    0x1c  Code  Gb  Selector.obj [2]
Selector__GetCycleByName
                        0x08007d3d    0x4c  Code  Gb  Selector.obj [2]
Selector__GetCycleGroup
                        0x08007da1    0x24  Code  Gb  Selector.obj [2]
Selector__GetCycleNameId
                        0x08007d89    0x18  Code  Gb  Selector.obj [2]
Selector__GetCycleState
                        0x08007d21    0x1c  Code  Gb  Selector.obj [2]
Selector__GetLoStatmentIndexLengthPtr
                        0x08007e61    0x1c  Code  Gb  Selector.obj [2]
Selector__GetNumberOfCycles
                        0x08007af5    0x40  Code  Gb  Selector.obj [2]
Selector__GetStateCycle
                        0x08007cc9    0x58  Code  Gb  Selector.obj [2]
Selector__GetUserPhaseName
                        0x08007e01    0x5a  Code  Gb  Selector.obj [2]
Selector__LoadPhaseData
                        0x08007b35   0x17c  Code  Gb  Selector.obj [2]
Selector__OkToPauseCycle
                        0x08007dc5    0x1e  Code  Gb  Selector.obj [2]
Semi_Period_Time        0x20004ea4     0x2  Data  Lc  MclZeroCross.obj [2]
SendData                0x0801fad1    0x42  Code  Lc  Win.obj [2]
SendRequestStatus       0x0802902f     0x2  Code  Lc  AlternateCtrl.obj [2]
SendRequestStatus       0x08013aad     0x2  Code  Lc  PumpControl.obj [2]
SendRun                 0x08013aaf   0x228  Code  Lc  PumpControl.obj [2]
SensedDrainData         0x20004ee4     0x8  Data  Lc  SensedDrainModel.obj [2]
SensedDrainModel__Execute
                        0x0801d659    0x98  Code  Gb  SensedDrainModel.obj [2]
SensedDrainModel__Initialize
                        0x0801d6f1    0x22  Code  Gb  SensedDrainModel.obj [2]
SensedDrain_DM_Attempt_Timer_Handler
                        0x200036d8    0x14  Data  Lc  SensedDrainProcess.obj [2]
SensedDrain_DM_Attempt_Timer_Value
                        0x20003654     0x4  Data  Lc  SensedDrainProcess.obj [2]
SensedDrain_DM_Initial_Timer_Handler
                        0x2000369c    0x14  Data  Lc  SensedDrainProcess.obj [2]
SensedDrain_DM_Initial_Timer_Value
                        0x20003648     0x4  Data  Lc  SensedDrainProcess.obj [2]
SensedDrain_DM_VwiStable_Timer_Handler
                        0x200036b0    0x14  Data  Lc  SensedDrainProcess.obj [2]
SensedDrain_DM_VwiStable_Timer_Value
                        0x2000364c     0x4  Data  Lc  SensedDrainProcess.obj [2]
SensedDrain_DrainConfirmed
                        0x20000354     0x1  Data  Gb  SensedDrainProcess.obj [2]
SensedDrain_DrainPumpAcceleration
                        0x20003636     0x2  Data  Lc  SensedDrainProcess.obj [2]
SensedDrain_DrainPumpSpeed
                        0x20003638     0x2  Data  Lc  SensedDrainProcess.obj [2]
SensedDrain_EmptyDrain_Timer_Handler
                        0x20003700    0x14  Data  Lc  SensedDrainProcess.obj [2]
SensedDrain_EmptyDrain_Timer_Value
                        0x2000365c     0x4  Data  Lc  SensedDrainProcess.obj [2]
SensedDrain_FilterData  0x20000358     0x8  Data  Gb  SensedDrainProcess.obj [2]
SensedDrain_InitialDrainValue
                        0x20000355     0x1  Data  Lc  SensedDrainProcess.obj [2]
SensedDrain_InitialDrainValue_Timer_Handler
                        0x20003714    0x14  Data  Lc  SensedDrainProcess.obj [2]
SensedDrain_InitialDrainValue_Timer_Value
                        0x20003660     0x4  Data  Lc  SensedDrainProcess.obj [2]
SensedDrain_ModelData   0x20000360     0x8  Data  Lc  SensedDrainProcess.obj [2]
SensedDrain_MotorData   0x2000361c     0x8  Data  Lc  SensedDrainProcess.obj [2]
SensedDrain_ProcessParam_Default
                        0x20000938     0x8  Data  Lc  SensedDrainProcess.obj [2]
SensedDrain_Process_Parameters
                        0x2000360c     0x8  Data  Lc  SensedDrainProcess.obj [2]
SensedDrain_RTModel     0x20003670    0x18  Data  Lc  SensedDrainProcess.obj [2]
SensedDrain_RetryPause_Timer_Handler
                        0x20003688    0x14  Data  Lc  SensedDrainProcess.obj [2]
SensedDrain_RetryPause_Timer_Value
                        0x20003644     0x4  Data  Lc  SensedDrainProcess.obj [2]
SensedDrain_TimerState  0x20003614     0x8  Data  Lc  SensedDrainProcess.obj [2]
SensedDrain_VwiHFAverage
                        0x2000366c     0x4  Data  Lc  SensedDrainProcess.obj [2]
SensedDrain_VwiHFAvg_Accumulator
                        0x20003664     0x4  Data  Lc  SensedDrainProcess.obj [2]
SensedDrain_VwiHFAvg_Samples
                        0x20003668     0x4  Data  Lc  SensedDrainProcess.obj [2]
SensedDrain_VwiInformation
                        0x2000362c     0x4  Data  Lc  SensedDrainProcess.obj [2]
SensedDrain_WM_Attempt_Timer_Handler
                        0x200036ec    0x14  Data  Lc  SensedDrainProcess.obj [2]
SensedDrain_WM_Attempt_Timer_Value
                        0x20003658     0x4  Data  Lc  SensedDrainProcess.obj [2]
SensedDrain_WM_NoChange_Timer_Handler
                        0x200036c4    0x14  Data  Lc  SensedDrainProcess.obj [2]
SensedDrain_WM_NoChange_Timer_Value
                        0x20003650     0x4  Data  Lc  SensedDrainProcess.obj [2]
SensedDrain_WashPumpAcceleration
                        0x20003632     0x2  Data  Lc  SensedDrainProcess.obj [2]
SensedDrain_WashPumpSpeed
                        0x20003634     0x2  Data  Lc  SensedDrainProcess.obj [2]
SensedDrain__ClearFault
                        0x08011d4f    0x16  Code  Gb  SensedDrainProcess.obj [2]
SensedDrain__GetDrainConfirmed
                        0x08011d71     0x6  Code  Gb  SensedDrainProcess.obj [2]
SensedDrain__GetInitialDrainValue
                        0x08011d77     0x6  Code  Gb  SensedDrainProcess.obj [2]
SensedDrain__GetModelData
                        0x08011d65     0xc  Code  Gb  SensedDrainProcess.obj [2]
SensedDrain__Initialize
                        0x0801227f    0x28  Code  Gb  SensedDrainProcess.obj [2]
SensedDrain__Logic      0x0801d4cb   0x18e  Code  Lc  SensedDrainModel.obj [2]
SensedDrain__Logic_Reset
                        0x0801d4b9    0x12  Code  Lc  SensedDrainModel.obj [2]
SensedDrain__Process    0x08011fcf   0x2b0  Code  Gb  SensedDrainProcess.obj [2]
SensedDrain__RequestMotorStatus
                        0x08011fcd     0x2  Code  Gb  SensedDrainProcess.obj [2]
SensedDrain__SetDrainConfirmed
                        0x08011d2d     0x6  Code  Gb  SensedDrainProcess.obj [2]
SensedDrain__SetDrainMotorDefaultSpeedState
                        0x08011eef    0x70  Code  Gb  SensedDrainProcess.obj [2]
SensedDrain__SetDrainMotorEmptySpeedState
                        0x08011f5f    0x44  Code  Gb  SensedDrainProcess.obj [2]
SensedDrain__SetFault   0x08011d17    0x16  Code  Gb  SensedDrainProcess.obj [2]
SensedDrain__SetModelData
                        0x08011d11     0x6  Code  Gb  SensedDrainProcess.obj [2]
SensedDrain__SetSensedDrainStatus
                        0x08011d09     0x8  Code  Gb  SensedDrainProcess.obj [2]
SensedDrain__SetTimerAsReset
                        0x08011d7d    0x50  Code  Gb  SensedDrainProcess.obj [2]
SensedDrain__SetTimerAsStart
                        0x08011dcd    0xb2  Code  Gb  SensedDrainProcess.obj [2]
SensedDrain__SetWashMotorState
                        0x08011e7f    0x70  Code  Gb  SensedDrainProcess.obj [2]
SensedDrain__SetWaterInformation
                        0x08011d33    0x1c  Code  Gb  SensedDrainProcess.obj [2]
Sensed_Drain_Status     0x20004e3f     0x1  Data  Gb  DishAuxVar.obj [2]
ServiceExit             0x0802f421    0x86  Code  Lc  TestMgr.obj [2]
SetActivateParams       0x0802de99    0x4c  Code  Lc  LoadsControl.obj [2]
SetAlgorithmNotActive   0x08010e8d     0x8  Code  Lc  HeaterShadowing.obj [2]
SetClosedFailure        0x0801cc7f     0xa  Code  Lc  PilotRelayStuckClosedMonitor.obj [2]
SetCounterOff           0x08031b45     0x8  Code  Lc  RinseAid.obj [2]
SetCounterOn            0x08031b4d     0x8  Code  Lc  RinseAid.obj [2]
SetDeactivateParams     0x0802deed    0x22  Code  Lc  LoadsControl.obj [2]
SetEstimatedRemainingTime
                        0x0800a1e1    0x62  Code  Lc  Estimator.obj [2]
SetF8E5Prefault         0x0800f1e5     0xa  Code  Lc  FillValveStuckOn.obj [2]
SetFailure              0x08023981     0xa  Code  Lc  DiverterFaultMonitor.obj [2]
SetFailureDetection     0x08024389     0xa  Code  Lc  TriacShortedDrainFaultMonitor.obj [2]
SetFailureF10E1Detection
                        0x08010043     0xa  Code  Lc  TriacCurrentMonitor.obj [2]
SetFailureF10E2F8E7Detection
                        0x0801004d    0x1a  Code  Lc  TriacCurrentMonitor.obj [2]
SetFailureF10E3Detection
                        0x08010811     0xa  Code  Lc  DCLoadCurrentMonitor.obj [2]
SetFailureF1E13         0x0800f1db     0xa  Code  Lc  FillValveStuckOn.obj [2]
SetFailureF1E50Detection
                        0x08010085     0xa  Code  Lc  TriacCurrentMonitor.obj [2]
SetFailureF1E51Detection
                        0x08010099     0xa  Code  Lc  TriacCurrentMonitor.obj [2]
SetFailureF1E523Detection
                        0x080100a3    0x1a  Code  Lc  TriacCurrentMonitor.obj [2]
SetFailureF1E54Detection
                        0x0801007b     0xa  Code  Lc  TriacCurrentMonitor.obj [2]
SetFailureF1E55Detection
                        0x0801008f     0xa  Code  Lc  TriacCurrentMonitor.obj [2]
SetFailureF5E3Detection
                        0x08010825     0xa  Code  Lc  DCLoadCurrentMonitor.obj [2]
SetFailureF8E2Detection
                        0x08010067     0xa  Code  Lc  TriacCurrentMonitor.obj [2]
SetFailureF8E5          0x0800f2ed     0xa  Code  Lc  FillValveStuckOn.obj [2]
SetFailureF9E2Detection
                        0x08010071     0xa  Code  Lc  TriacCurrentMonitor.obj [2]
SetFailureF9E4Detection
                        0x0801081b     0xa  Code  Lc  DCLoadCurrentMonitor.obj [2]
SetH2OAlarm             0x0800eb73     0xe  Code  Lc  ClassAFill.obj [2]
SetH2OAlarm             0x0800bdc1    0x26  Code  Lc  NormalFill.obj [2]
SetH2OAlarm             0x0800ef99     0xe  Code  Lc  TankFill.obj [2]
SetHeaterOpenAndRelayLClosedDetection
                        0x0801cb21     0xa  Code  Lc  HeaterOpenAndLineRelayClosedMonitor.obj [2]
SetHeaterOpenDetection  0x0801c983     0xa  Code  Lc  HeaterOpenMonitor.obj [2]
SetHomePosition         0x08029189    0x22  Code  Lc  AlternateCtrl.obj [2]
SetLeakageDetection     0x0801c7fd     0xa  Code  Lc  HeaterLeakageMonitor.obj [2]
SetLed                  0x080247cb    0x1e  Code  Lc  StatusLed.obj [2]
SetLoadQueue_Data       0x20003c18    0x80  Data  Gb  SetLoadQueue.obj [2]
SetLoadQueue_Index      0x20004f32     0x1  Data  Gb  SetLoadQueue.obj [2]
SetLoadQueue_Max_Len    0x20004f31     0x1  Data  Gb  SetLoadQueue.obj [2]
SetLoadQueue__Handler   0x08022f17    0x6a  Code  Gb  SetLoadQueue.obj [2]
SetLoadQueue__Initialize
                        0x08022ecd    0x4a  Code  Gb  SetLoadQueue.obj [2]
SetLoadQueue__SetLoadRequestByIndex
                        0x08022f81    0xd2  Code  Gb  SetLoadQueue.obj [2]
SetOpenFailure          0x0801cddf     0xa  Code  Lc  PilotRelayStuckOpenMonitor.obj [2]
SetProfileOffTime       0x08024915    0x2e  Code  Lc  StatusLed.obj [2]
SetProfileOnTime        0x08024945    0x2e  Code  Lc  StatusLed.obj [2]
SetPulseParams          0x0802df15    0x68  Code  Lc  LoadsControl.obj [2]
SetRelayLOpenDetection  0x0801c685     0xa  Code  Lc  HeaterLineRelayOpenMonitor.obj [2]
SetRelayNOpenDetection  0x0801c50f     0xa  Code  Lc  HeaterNeutralRelayOpenMonitor.obj [2]
SetReqSubModeNone       0x08009517     0x8  Code  Lc  Mode.obj [2]
SetSRSequenceError      0x0801560b    0x28  Code  Lc  SRTaskSequence.obj [2]
SetSRTaskError          0x0801609d    0x20  Code  Lc  SRTaskMonitor.obj [2]
SetStabilizationTime    0x0801cca5     0x8  Code  Lc  PilotRelayStuckClosedMonitor.obj [2]
SetStabilizationTime    0x0801ce05     0x8  Code  Lc  PilotRelayStuckOpenMonitor.obj [2]
SetStabilizationTime    0x08024393     0x8  Code  Lc  TriacShortedDrainFaultMonitor.obj [2]
SetStateEstimate        0x0800a249    0xfe  Code  Lc  Estimator.obj [2]
SetStepStatus           0x080065a5    0x82  Code  Lc  Interpreter.obj [2]
SetSystemStateCancelling
                        0x08004bc1     0xc  Code  Lc  Supervisor.obj [2]
SetSystemStateDelay     0x08004bcd     0xe  Code  Lc  Supervisor.obj [2]
SetSystemStateDelayPause
                        0x08004bdb     0xe  Code  Lc  Supervisor.obj [2]
SetSystemStateEndOfCycle
                        0x08004be9     0xc  Code  Lc  Supervisor.obj [2]
SetSystemStateFault     0x08004bf5     0xc  Code  Lc  Supervisor.obj [2]
SetSystemStatePause     0x08004c01     0xe  Code  Lc  Supervisor.obj [2]
SetSystemStateProgramming
                        0x08004c0f     0xe  Code  Lc  Supervisor.obj [2]
SetSystemStateRun       0x08004c1d     0xc  Code  Lc  Supervisor.obj [2]
SetVariableMathValue    0x08008c91    0xc2  Code  Lc  Variable.obj [2]
SetVariableValue        0x08008b25   0x158  Code  Lc  Variable.obj [2]
SetVariable__Process    0x08032ab5   0x15e  Code  Gb  SetVariable.obj [2]
SetWaterState           0x0801a7b5    0x5c  Code  Lc  Vwi.obj [2]
SettingFileStructure    0x20000254    0x10  Data  Lc  MoisturePreventionMonitor.obj [2]
SettingFile__BasicLoader
                        0x08012dfb    0x2c  Code  Gb  SettingFile.obj [2]
SettingFile__CheckDataIntegrity
                        0x08012d25    0x9e  Code  Gb  SettingFile.obj [2]
SettingFile__GetMemorySectionSize
                        0x08012e71     0x4  Code  Gb  SettingFile.obj [2]
SettingFile__GetMemorySectionStart
                        0x08012e6d     0x4  Code  Gb  SettingFile.obj [2]
SettingFile__GetSectionIDs
                        0x08012e83    0x38  Code  Gb  SettingFile.obj [2]
SettingFile__GetSettingFileCRC
                        0x08012e55    0x18  Code  Gb  SettingFile.obj [2]
SettingFile__GetSettingFilePointerByIndex
                        0x08012ebb    0x1c  Code  Gb  SettingFile.obj [2]
SettingFile__GetSettingFileSize
                        0x08012ed7    0x18  Code  Gb  SettingFile.obj [2]
SettingFile__GetSettingFileStart
                        0x08012e75     0xe  Code  Gb  SettingFile.obj [2]
SettingFile__Initialize
                        0x08012cad    0x78  Code  Gb  SettingFile.obj [2]
SettingFile__IsExtendedDisplacement
                        0x08012e35    0x20  Code  Gb  SettingFile.obj [2]
SettingFile__IsPlatformPointerUsed
                        0x08012dc3    0x1e  Code  Gb  SettingFile.obj [2]
SettingFile__IsValid    0x08012de1    0x1a  Code  Gb  SettingFile.obj [2]
SettingFile__MSettingBasicLoader
                        0x08012e27     0xe  Code  Gb  SettingFile.obj [2]
Settingfile_Flash_Crc   0x20004e26     0x2  Data  Lc  SettingFile.obj [2]
Settingfile_Flash_Crc_Ptr
                        0x20004e28     0x4  Data  Lc  SettingFile.obj [2]
Settingfile_Section_Position
                        0x20004e25     0x1  Data  Lc  SettingFile.obj [2]
SetupAlarmDebounce      0x080054c9    0x26  Code  Lc  Fault.obj [2]
SetupPreFaultDebounce   0x080054ef    0x1a  Code  Lc  Fault.obj [2]
SetupTimer              0x080131a1    0x40  Code  Lc  FdmTimer.obj [2]
Severity_Filter         0x200046ac     0x1  Data  Lc  Log.obj [2]
Sf_AirlockData          0x200008ac     0xc  Data  Lc  AirlockMonitor.obj [2]
Sf_AirlockData_Ptr      0x200008b8     0x4  Data  Lc  AirlockMonitor.obj [2]
Sf_OWICalibration_Config
                        0x20004270     0x4  Data  Gb  OWICalibrationProcess.obj [2]
Sf_OWIMonitor_Config    0x20004eb0     0x4  Data  Lc  OWIMonitor.obj [2]
Sf_PartialDrain_MachineConfig
                        0x200008e8     0x4  Data  Lc  PartialDrainProcess.obj [2]
Sf_PartialDrain_MachineDefault
                        0x20000924    0x10  Data  Lc  PartialDrainProcess.obj [2]
Sf_PartialDrain_ProcessConfig
                        0x200008ec     0x4  Data  Lc  PartialDrainProcess.obj [2]
Sf_PartialDrain_ProcessDefault
                        0x20000934     0x4  Data  Lc  PartialDrainProcess.obj [2]
Sf_RinseAid_Data        0x20004df4     0x4  Data  Gb  RinseAidMonitor.obj [2]
Sf_SensedDrain_Config   0x2000363c     0x4  Data  Lc  SensedDrainProcess.obj [2]
Sf_SensedDrain_Default  0x20000940    0x14  Data  Lc  SensedDrainProcess.obj [2]
ShiftArray              0x08008565    0x46  Code  Lc  Statistics.obj [2]
Short_Circuit_Deb       0x20004d1c     0x1  Data  Lc  MclInputProc.obj [2]
ShortedFaultDetected    0x0801c38f     0xa  Code  Lc  ThermistorShortedMonitor.obj [2]
Soil_Level_1            0x200003df     0x1  Data  Gb  DishAuxVar.obj [2]
Soil_Level_2            0x200003ee     0x1  Data  Gb  DishAuxVar.obj [2]
Soil_Measure_2          0x200000fe     0x2  Data  Gb  DishAuxVar.obj [2]
Soil_Measure_3          0x20000100     0x2  Data  Gb  DishAuxVar.obj [2]
Soil_Measure_4          0x20000102     0x2  Data  Gb  DishAuxVar.obj [2]
Soil_Measure_5          0x20000104     0x2  Data  Gb  DishAuxVar.obj [2]
Soil_Measure_6          0x20000106     0x2  Data  Gb  DishAuxVar.obj [2]
Soil_Measure_Difference_2
                        0x2000010a     0x2  Data  Gb  DishAuxVar.obj [2]
Soil_Measure_Difference_3
                        0x2000010c     0x2  Data  Gb  DishAuxVar.obj [2]
Soil_Measure_Difference_Recent
                        0x20000108     0x2  Data  Gb  DishAuxVar.obj [2]
Soil_Measure_Recent     0x200000fc     0x2  Data  Gb  DishAuxVar.obj [2]
SortFaultsArray         0x080085ab    0xbe  Code  Lc  Statistics.obj [2]
Sorted_Index_Array      0x20004368     0xc  Data  Lc  DishAuxVar.obj [2]
Speed_Reduction_Status  0x2000037b     0x1  Data  Lc  StabilityControl.obj [2]
Spv_Regulations         0x200003c0     0x4  Data  Lc  Supervisor.obj [2]
StabilityControlLoopMonitor__Execution
                        0x0801b7c9   0x1e0  Code  Gb  StabilityControlLoopMonitor.obj [2]
StabilityControlLoopMonitor__Execution{1}{2}::cycle_was_paused
                        0x20004da8     0x1  Data  Lc  StabilityControlLoopMonitor.obj [2]
StabilityControlLoopMonitor__GetOutcome
                        0x0801b9a9     0x6  Code  Gb  StabilityControlLoopMonitor.obj [2]
StabilityControlLoopMonitor__Initialize
                        0x0801b745    0x84  Code  Gb  StabilityControlLoopMonitor.obj [2]
StabilityControlLoopMonitor__ResetCounters
                        0x0801b9af     0xa  Code  Gb  StabilityControlLoopMonitor.obj [2]
StabilityControl__GetLDPrimaryReaction
                        0x0800d495     0xa  Code  Gb  StabilityControl.obj [2]
StabilityControl__GetLDSecondaryReaction
                        0x0800d49f     0xc  Code  Gb  StabilityControl.obj [2]
StabilityControl__GetSpeedReduction
                        0x0800d411     0x6  Code  Gb  StabilityControl.obj [2]
StabilityControl__GetStatus
                        0x0800d48f     0x6  Code  Gb  StabilityControl.obj [2]
StabilityControl__Initialize
                        0x0800d019   0x120  Code  Gb  StabilityControl.obj [2]
StabilityControl__NVDataRestore
                        0x0800d139     0xe  Code  Gb  StabilityControl.obj [2]
StabilityControl__ReduceSpeed
                        0x0800d421    0x6e  Code  Gb  StabilityControl.obj [2]
StabilityControl__ResetFlagsMask
                        0x0800d519     0xe  Code  Gb  StabilityControl.obj [2]
StabilityControl__SetFlagsMask
                        0x0800d50f     0xa  Code  Gb  StabilityControl.obj [2]
StabilityControl__Task  0x0800d14d   0x25e  Code  Gb  StabilityControl.obj [2]
StabilityControl__Terminate
                        0x0800d3ab    0x34  Code  Gb  StabilityControl.obj [2]
StabilityControl__UpdateReaction
                        0x0800d4ab    0x64  Code  Gb  StabilityControl.obj [2]
StabilityControl__VariablesInitialize
                        0x0800d3df    0x32  Code  Gb  StabilityControl.obj [2]
Stability_Control_Flags
                        0x20000378     0x1  Data  Gb  StabilityControl.obj [2]
Stability_Control_Status
                        0x2000037c     0x1  Data  Lc  StabilityControl.obj [2]
Stable_Water_Counter    0x20004bce     0x2  Data  Lc  StabilityControl.obj [2]
StackAnalysis__GetStackInformation
                        0x080262d1    0x52  Code  Gb  StackAnalysis.obj [2]
Stack_Signature_After_Threads
                        0x20023fb8     0x4  Data  Gb  SRMain.obj [2]
Stack_Signature_Before_Threads
                        0x20023480     0x4  Data  Gb  SRMain.obj [2]
Stack_Signature_Between_Threads_1
                        0x20023684     0x4  Data  Gb  SRMain.obj [2]
Stack_Signature_Between_Threads_2
                        0x200239a8     0x4  Data  Gb  SRMain.obj [2]
Stack_Signature_Between_Threads_3
                        0x200239ac     0x4  Data  Gb  SRMain.obj [2]
Stack_Signature_Between_Threads_4
                        0x20023bb0     0x4  Data  Gb  SRMain.obj [2]
Stack_Signature_Between_Threads_5
                        0x20023db4     0x4  Data  Gb  SRMain.obj [2]
StandbyManager_Activate_Standby
                        0x20000965     0x1  Data  Lc  StandbyManager.obj [2]
StandbyManager_Attempt_Counter
                        0x20000966     0x1  Data  Lc  StandbyManager.obj [2]
StandbyManager_Autokill_Index
                        0x20000964     0x1  Data  Lc  StandbyManager.obj [2]
StandbyManager_Start_Timer
                        0x20000968     0x1  Data  Lc  StandbyManager.obj [2]
StandbyManager_State    0x20000967     0x1  Data  Lc  StandbyManager.obj [2]
StandbyManager_Timer_Handler
                        0x2000096c    0x14  Data  Lc  StandbyManager.obj [2]
StandbyManager__GetPermission
                        0x0802a569    0x44  Code  Gb  StandbyManager.obj [2]
StandbyManager__ResetActivateStandby
                        0x0802a5ad     0x8  Code  Gb  StandbyManager.obj [2]
Start                   0x08004c29    0x76  Code  Lc  Supervisor.obj [2]
StartCancellingCycle    0x08004ca5    0x3a  Code  Lc  Supervisor.obj [2]
StartCountPulses        0x0800f0e5     0xc  Code  Lc  FillValveStuckOn.obj [2]
StartDelay              0x0800cecb     0xa  Code  Lc  OwiVroRead.obj [2]
StartDelayTimer         0x0800f01f     0x8  Code  Lc  TankFill.obj [2]
StartDispensingTimer    0x08030e7d    0x66  Code  Lc  TridgeDetergent.obj [2]
StartNextSampleAcquisition
                        0x0800ceef    0x1c  Code  Lc  OwiVroRead.obj [2]
StartPrefaultTimerOFF   0x0800f2f7     0x8  Code  Lc  FillValveStuckOn.obj [2]
StartPrefaultTimerON    0x0800f2ff     0x8  Code  Lc  FillValveStuckOn.obj [2]
StartSubCycle           0x0800bcb3     0xe  Code  Lc  NormalFill.obj [2]
StartTimer              0x0800f2d7     0xc  Code  Lc  FillValveStuckOn.obj [2]
StartTimer              0x0800953b     0xa  Code  Lc  Mode.obj [2]
StartTimerWaitStatus    0x080291d3     0xe  Code  Lc  AlternateCtrl.obj [2]
StartTimerWaitStatus    0x08013a83     0xe  Code  Lc  PumpControl.obj [2]
State_Machine_Requestor
                        0x20004dac     0x1  Data  Lc  API007App.obj [2]
Statistics              0x20000458   0x304  Data  Gb  Statistics.obj [2]
StatisticsDish__DecreaseWaterCounter
                        0x0800dcab    0x1c  Code  Gb  StatisticsDish.obj [2]
StatisticsDish__IncreaseCyclesWithLimescale
                        0x0800de3f    0x48  Code  Gb  StatisticsDish.obj [2]
StatisticsDish__IncreaseDoorOpenings
                        0x0800dc07    0x38  Code  Gb  StatisticsDish.obj [2]
StatisticsDish__IncreaseHighVoltageEventCounter
                        0x0800dee7    0x3c  Code  Gb  StatisticsDish.obj [2]
StatisticsDish__IncreaseInterruptedPhasesNum
                        0x0800dd79    0x42  Code  Gb  StatisticsDish.obj [2]
StatisticsDish__IncreaseLowVoltageEventCounter
                        0x0800deab    0x3c  Code  Gb  StatisticsDish.obj [2]
StatisticsDish__IncreaseRPMReductions
                        0x0800ddfd    0x42  Code  Gb  StatisticsDish.obj [2]
StatisticsDish__IncreaseSCLPrimaryReactionCounter
                        0x0800db97    0x38  Code  Gb  StatisticsDish.obj [2]
StatisticsDish__IncreaseSCLSecondaryReactionCounter
                        0x0800dbcf    0x38  Code  Gb  StatisticsDish.obj [2]
StatisticsDish__IncreaseWaterAddExecutions
                        0x0800ddbb    0x42  Code  Gb  StatisticsDish.obj [2]
StatisticsDish__IncreaseWaterCounter
                        0x0800dca1     0xa  Code  Gb  StatisticsDish.obj [2]
StatisticsDish__Initialize
                        0x0800da69    0x3e  Code  Gb  StatisticsDish.obj [2]
StatisticsDish__ResetHeatDurationCounter
                        0x0800dd43     0xa  Code  Gb  StatisticsDish.obj [2]
StatisticsDish__SetSCLReactionTriggered
                        0x0800db8b     0xc  Code  Gb  StatisticsDish.obj [2]
StatisticsDish__UpdateCycleData
                        0x0800dab7    0x64  Code  Gb  StatisticsDish.obj [2]
StatisticsDish__UpdateDelayRecord
                        0x0800dc3f    0x62  Code  Gb  StatisticsDish.obj [2]
StatisticsDish__UpdateFaultData
                        0x0800db1b    0x38  Code  Gb  StatisticsDish.obj [2]
StatisticsDish__UpdateFstFillWaterTemp
                        0x0800dcc7    0x28  Code  Gb  StatisticsDish.obj [2]
StatisticsDish__UpdateHeatDurationCounter
                        0x0800dd4d    0x22  Code  Gb  StatisticsDish.obj [2]
StatisticsDish__UpdateHeatRelatedMeasures
                        0x0800dd17    0x2c  Code  Gb  StatisticsDish.obj [2]
StatisticsDish__UpdateLifetimeData
                        0x0800daa7    0x10  Code  Gb  StatisticsDish.obj [2]
StatisticsDish__UpdateOWICalibrationDutyCycle
                        0x0800dcef    0x28  Code  Gb  StatisticsDish.obj [2]
StatisticsDish__UpdatePreFaultData
                        0x0800db53    0x38  Code  Gb  StatisticsDish.obj [2]
StatisticsDish__UpdateServiceFaultClearOdometer
                        0x0800de8d    0x1e  Code  Gb  StatisticsDish.obj [2]
StatisticsDish__UpdateVoltageRangeStatus
                        0x0800df23    0x16  Code  Gb  StatisticsDish.obj [2]
Statistics_Milliseconds
                        0x20004eee     0x2  Data  Lc  Statistics.obj [2]
Statistics_Seconds_Since_Reset
                        0x20004ef0     0x4  Data  Gb  Statistics.obj [2]
Statistics__ApplyFaultAgeCutoff
                        0x080080fb    0x78  Code  Gb  Statistics.obj [2]
Statistics__Background  0x080080c3    0x38  Code  Gb  Statistics.obj [2]
Statistics__ClearFaultData
                        0x08008173    0x24  Code  Gb  Statistics.obj [2]
Statistics__CycleStarted
                        0x08008199    0x82  Code  Gb  Statistics.obj [2]
Statistics__CycleStopped
                        0x0800823d    0x88  Code  Gb  Statistics.obj [2]
Statistics__GetCycleData
                        0x080082cd    0x58  Code  Gb  Statistics.obj [2]
Statistics__GetFaultBlackBoxData
                        0x0800834f    0x26  Code  Gb  Statistics.obj [2]
Statistics__GetFaultData
                        0x08008329    0x26  Code  Gb  Statistics.obj [2]
Statistics__GetLifetimeData
                        0x08008375     0x4  Code  Gb  Statistics.obj [2]
Statistics__GetPreFaultBlackBoxData
                        0x080083a1    0x26  Code  Gb  Statistics.obj [2]
Statistics__GetPreFaultData
                        0x08008379    0x28  Code  Gb  Statistics.obj [2]
Statistics__Initialize  0x08007ff9    0xca  Code  Gb  Statistics.obj [2]
Statistics__SaveFaultData
                        0x080083cd    0x98  Code  Gb  Statistics.obj [2]
Statistics__SavePreFaultData
                        0x08008465    0x26  Code  Gb  Statistics.obj [2]
Stats_Aux_Vars          0x20000394    0x10  Data  Lc  StatisticsDish.obj [2]
StatusChange_Callback_Control_Structure
                        0x08021118     0x8  Data  Lc  Status.obj [2]
StatusChange_Callback_Control_Structure_Registry
                        0x20004b38    0x18  Data  Lc  Status.obj [2]
StatusGetSize           0x080210cd    0x3e  Code  Lc  Status.obj [2]
StatusLed               0x20004ef4     0x8  Data  Lc  StatusLed.obj [2]
StatusLedExecute        0x080249e3    0x22  Code  Lc  StatusLed.obj [2]
StatusLedInitialize     0x08024a05     0xe  Code  Lc  StatusLed.obj [2]
StatusLedTerminate      0x08024a13     0x8  Code  Lc  StatusLed.obj [2]
StatusLed__Execute      0x0802479d     0x8  Code  Gb  StatusLed.obj [2]
StatusLed__Initialize   0x08024769    0x34  Code  Gb  StatusLed.obj [2]
StatusLed__Resume       0x080247bd     0xe  Code  Gb  StatusLed.obj [2]
StatusLed__Suspend      0x080247a5    0x18  Code  Gb  StatusLed.obj [2]
Status_Configured       0x20004e0d     0x1  Data  Lc  Status.obj [2]
Status_Led_State        0x20004f98     0x1  Data  Lc  StatusLed.obj [2]
Status_Variables        0x20004e14     0x4  Data  Lc  Status.obj [2]
Status_Variables_Size   0x20004e0e     0x1  Data  Lc  Status.obj [2]
Status__BuildPackage    0x08020f1d    0xfc  Code  Gb  Status.obj [2]
Status__BuildStatusInfoPackage
                        0x08021019    0x52  Code  Gb  Status.obj [2]
Status__Config          0x08020ec1    0x44  Code  Gb  Status.obj [2]
Status__GetSize         0x08020f0b    0x10  Code  Gb  Status.obj [2]
Status__HasChanged      0x0802106d    0x60  Code  Gb  Status.obj [2]
Status__Initialize      0x08020ea9    0x18  Code  Gb  Status.obj [2]
Status__IsValid         0x08020f05     0x6  Code  Gb  Status.obj [2]
SteadyPwmProfilePilot_Allocation
                        0x20004f99     0x1  Data  Lc  SteadyPwmProfilePilot.obj [2]
SteadyPwmProfilePilot_Data
                        0x20004870    0x20  Data  Lc  SteadyPwmProfilePilot.obj [2]
SteadyPwmProfilePilot__Allocate
                        0x080316c1    0x12  Code  Gb  SteadyPwmProfilePilot.obj [2]
SteadyPwmProfilePilot__GetProcessed
                        0x080317e1    0x1a  Code  Gb  SteadyPwmProfilePilot.obj [2]
SteadyPwmProfilePilot__GetRequested
                        0x080317c7    0x1a  Code  Gb  SteadyPwmProfilePilot.obj [2]
SteadyPwmProfilePilot__GetStatus
                        0x08031949    0x1a  Code  Gb  SteadyPwmProfilePilot.obj [2]
SteadyPwmProfilePilot__Initialize
                        0x080316ad    0x14  Code  Gb  SteadyPwmProfilePilot.obj [2]
SteadyPwmProfilePilot__InitializeInstance
                        0x080316d3    0xa4  Code  Gb  SteadyPwmProfilePilot.obj [2]
SteadyPwmProfilePilot__OneMsHandler
                        0x080317fb   0x14e  Code  Gb  SteadyPwmProfilePilot.obj [2]
SteadyPwmProfilePilot__Process
                        0x080317a9    0x1e  Code  Gb  SteadyPwmProfilePilot.obj [2]
SteadyPwmProfilePilot__Request
                        0x08031777    0x32  Code  Gb  SteadyPwmProfilePilot.obj [2]
Step_Advance_Request    0x20004f2c     0x4  Data  Lc  DoorMonitor.obj [2]
Stop                    0x0801de77     0x8  Code  Gb  OWIVoltageRegulatedOutputModel.obj [2]
Stop_Task               0x20004f97     0x1  Data  Lc  Sanitization.obj [2]
StoreNewFirmwareAndSettingFile
                        0x0800797f    0x16  Code  Lc  NVData.obj [2]
StoreReceivedData       0x08019bb1    0x64  Code  Lc  API013RemoteFunction.obj [2]
StoreSegments           0x080079e3     0x8  Code  Lc  NVData.obj [2]
Store_Buffer_Datas      0x20000044    0x34  Data  Lc  API007App.obj [2]
Store_Buffer_Datas_Null
                        0x0802c750    0x34  Data  Lc  API007App.obj [2]
SubCycle__GetActive     0x080137d3    0x72  Code  Gb  SubCycle.obj [2]
SubCycle__Initialize    0x08013751    0x68  Code  Gb  SubCycle.obj [2]
SubCycle__RequestStart  0x080137b9    0x1a  Code  Gb  SubCycle.obj [2]
SubModeExecute          0x08009631    0x40  Code  Lc  Mode.obj [2]
SubModeInitialize       0x08009679     0xc  Code  Lc  Mode.obj [2]
Sub_Cycle               0x20004f00     0x4  Data  Lc  SubCycle.obj [2]
Sub_Cycle_Resume_Data   0x20000208     0xc  Data  Lc  Interpreter.obj [2]
Sub_Cycle_Resume_Status
                        0x20000214     0x8  Data  Lc  Interpreter.obj [2]
Sub_Mode_State          0x200048f5     0x1  Data  Lc  Mode.obj [2]
Sub_Mode_Transitioned   0x200048f6     0x1  Data  Lc  Mode.obj [2]
SupervisorBuildFsmVar   0x080038d9    0x10  Code  Lc  Supervisor.obj [2]
SupervisorExtMonitorGetState
                        0x0802344d    0x5c  Code  Gb  SupervisorExtMonitor.obj [2]
SupervisorExtMonitor__Execution
                        0x080233e1    0x68  Code  Gb  SupervisorExtMonitor.obj [2]
SupervisorExtMonitor__Initialize
                        0x080233ad    0x34  Code  Gb  SupervisorExtMonitor.obj [2]
SupervisorFaultObserver
                        0x08003fd5    0x30  Code  Lc  Supervisor.obj [2]
SupervisorFsmEvent      0x080032ad   0x62c  Code  Lc  Supervisor.obj [2]
SupervisorFsmEventCompartment
                        0x08004181    0x2c  Code  Lc  Supervisor.obj [2]
SupervisorFsmExecute    0x08003115   0x144  Code  Lc  Supervisor.obj [2]
SupervisorFsmInitialize
                        0x080030e5    0x2e  Code  Lc  Supervisor.obj [2]
SupervisorFsmTerminate  0x08003259    0x54  Code  Lc  Supervisor.obj [2]
SupervisorPreFaultObserver
                        0x08004005    0x2a  Code  Lc  Supervisor.obj [2]
Supervisor_Data         0x200003b8     0x8  Data  Lc  Supervisor.obj [2]
Supervisor_Delay_Time_Remaining
                        0x200003c8     0x4  Data  Gb  Supervisor.obj [2]
Supervisor__EngageTest  0x08003b0d    0x94  Code  Gb  Supervisor.obj [2]
Supervisor__GetCycleTime
                        0x08003bcb    0x14  Code  Gb  Supervisor.obj [2]
Supervisor__Initialize  0x080038e9   0x224  Code  Gb  Supervisor.obj [2]
Supervisor__IsInPausedDelay
                        0x08003bb1    0x1a  Code  Gb  Supervisor.obj [2]
Supervisor__IsTestCycleActive
                        0x08003ba1    0x10  Code  Gb  Supervisor.obj [2]
Supervisor__Run         0x08003bf1    0xac  Code  Gb  Supervisor.obj [2]
Supervisor__SetCycle    0x08003c9d    0x78  Code  Gb  Supervisor.obj [2]
Supervisor__SetPhase    0x08003d15    0x44  Code  Gb  Supervisor.obj [2]
Supervisor__SetStart    0x08003d9d    0xd8  Code  Gb  Supervisor.obj [2]
Supervisor__SetStep     0x08003d59    0x44  Code  Gb  Supervisor.obj [2]
SwitchFillOFF           0x0800f307    0x14  Code  Lc  FillValveStuckOn.obj [2]
SwitchFillON            0x0800f31b    0x14  Code  Lc  FillValveStuckOn.obj [2]
SwitchLoadHandler       0x080226a7   0x3f6  Code  Lc  CrossLoads.obj [2]
SwitchOFFPilot          0x0800f0f1    0x1e  Code  Lc  FillValveStuckOn.obj [2]
SystemStable            0x08019db1    0x4a  Code  Lc  ApplianceMgr.obj [2]
SystemTimers__GetFreeRunningCounter
                        0x0801aa89     0x6  Code  Gb  SystemTimers.obj [2]
SystemTimers__GetHandle
                        0x0801aa8f    0x5c  Code  Gb  SystemTimers.obj [2]
SystemTimers__GetState  0x0801ab7d    0x2c  Code  Gb  SystemTimers.obj [2]
SystemTimers__Handler1ms
                        0x0801aa3d    0x4c  Code  Gb  SystemTimers.obj [2]
SystemTimers__Initialize
                        0x0801aa0d    0x30  Code  Gb  SystemTimers.obj [2]
SystemTimers__NVCheckTimer
                        0x0801acbf     0xc  Code  Gb  SystemTimers.obj [2]
SystemTimers__NVGetTimerHMS
                        0x0801ae89    0x4e  Code  Gb  SystemTimers.obj [2]
SystemTimers__NVGetTimerMs
                        0x0801ad57   0x12e  Code  Gb  SystemTimers.obj [2]
SystemTimers__NVPauseTimer
                        0x0801accb    0x2e  Code  Gb  SystemTimers.obj [2]
SystemTimers__NVResetTimer
                        0x0801abad    0x20  Code  Gb  SystemTimers.obj [2]
SystemTimers__NVRestore
                        0x0801abd1    0xb4  Code  Gb  SystemTimers.obj [2]
SystemTimers__NVResumeTimer
                        0x0801acf9    0x5e  Code  Gb  SystemTimers.obj [2]
SystemTimers__NVSetTimerMS
                        0x0801ac85    0x3a  Code  Gb  SystemTimers.obj [2]
SystemTimers__ReleaseHandle
                        0x0801aaeb    0x36  Code  Gb  SystemTimers.obj [2]
SystemTimers__SetMs     0x0801ab21    0x54  Code  Gb  SystemTimers.obj [2]
System_Stable           0x20004e5c     0x1  Data  Lc  ApplianceMgr.obj [2]
System_State            0x2000042c     0x1  Data  Gb  Supervisor.obj [2]
TASKS_STACK$$Base       0x20023480           --   Gb  - Linker created -
TASKS_STACK$$Limit      0x20023fbc           --   Gb  - Linker created -
TASK_LIST               0x080099f0    0xb4  Data  Gb  ActivateTask.obj [2]
TD_Process_Data_Ptr     0x2000406c     0x4  Data  Lc  TridgeDetergent.obj [2]
TD_Process_NV_Data_Ptr  0x20004070     0x4  Data  Lc  TridgeDetergent.obj [2]
TIMER_INDEX             0x080208a4    0x14  Data  Lc  Timer.obj [2]
TIMER_LIST              0x080208b8    0x40  Data  Lc  Timer.obj [2]
Tab_Crc16_Hi            0x08015768   0x100  Data  Gb  Crc16.obj [2]
Tab_Crc16_Lo            0x08015868   0x100  Data  Gb  Crc16.obj [2]
TableModification       0x08017bb9   0x11e  Code  Lc  Modifier.obj [2]
TankDrain               0x0801421b    0x76  Code  Lc  TankDrain.obj [2]
TankDrainBuildFsmVar    0x08014139    0x10  Code  Lc  TankDrain.obj [2]
TankDrainFsmEvent       0x080140ff    0x3a  Code  Lc  TankDrain.obj [2]
TankDrainFsmExecute     0x080140cd    0x32  Code  Lc  TankDrain.obj [2]
TankDrainFsmInitialize  0x080140b1    0x1c  Code  Lc  TankDrain.obj [2]
TankDrainInitialCheck   0x08014291    0x54  Code  Lc  TankDrain.obj [2]
TankDrain_Data          0x20004f14     0x8  Data  Lc  TankDrain.obj [2]
TankDrain_NV_Data       0x200003d0     0x4  Data  Lc  TankDrain.obj [2]
TankDrain__Initialize   0x08014149    0x32  Code  Gb  TankDrain.obj [2]
TankDrain__Manager      0x0801417b    0x4a  Code  Gb  TankDrain.obj [2]
TankDrain__SetSubcycleExecuted
                        0x080141c5    0x22  Code  Gb  TankDrain.obj [2]
TankFillBuildFsmVar     0x0800edb7    0x10  Code  Lc  TankFill.obj [2]
TankFillFsmEvent        0x0800ed15    0xa2  Code  Lc  TankFill.obj [2]
TankFillFsmExecute      0x0800ecc9    0x4a  Code  Lc  TankFill.obj [2]
TankFillFsmInitialize   0x0800ecad    0x1c  Code  Lc  TankFill.obj [2]
TankFill__DisableFlowRateCalibration
                        0x0800ee77     0x8  Code  Gb  TankFill.obj [2]
TankFill__Initialize    0x0800edc7    0x38  Code  Gb  TankFill.obj [2]
TankFill__Manager       0x0800edff    0x4e  Code  Gb  TankFill.obj [2]
TankFill__SetH2OPauseExecuted
                        0x0800ee6f     0x8  Code  Gb  TankFill.obj [2]
TankFill__SetSubcycleExecuted
                        0x0800ee4d    0x22  Code  Gb  TankFill.obj [2]
Tank_Drain_State        0x200003cc     0x1  Data  Lc  TankDrain.obj [2]
Tank_Fill_Data          0x20004c84    0x14  Data  Lc  TankFill.obj [2]
Tank_Fill_NV_Data       0x200003d4     0x8  Data  Lc  TankFill.obj [2]
Tank_Fill_State         0x200003dc     0x1  Data  Lc  TankFill.obj [2]
Tank_State_Drain        0x20000172     0x1  Data  Gb  Fill.obj [2]
Tank_State_Fill         0x20000171     0x1  Data  Gb  Fill.obj [2]
Task_Active             0x2000013a     0x2  Data  Lc  ActivateTask.obj [2]
Task_Control_Block_List
                        0x08026328    0x14  Data  Lc  StackAnalysis.obj [2]
Task_Paused             0x20004bd0     0x2  Data  Lc  ActivateTask.obj [2]
Task_Suspended          0x20004bc7     0x1  Data  Lc  StabilityControl.obj [2]
Tasks_Monitor_Data      0x20003d78    0x64  Data  Lc  TimingAnalysis.obj [2]
Temp_Data               0x20004614    0x34  Data  Lc  ProductInfo.obj [2]
TemperatureThresholdsInterpolation
                        0x0800c7e5    0xd0  Code  Lc  HeaterCalcificationDetectionMonitor.obj [2]
TestCycleEnd            0x08004035    0x34  Code  Lc  Supervisor.obj [2]
TestManagerExecute      0x0802f541    0x2e  Code  Lc  TestMgr.obj [2]
TestManagerInitialize   0x0802f575     0xc  Code  Lc  TestMgr.obj [2]
TestMgr_Storage         0x200003e1     0x1  Data  Lc  TestMgr.obj [2]
TestMgr_Timer           0x200003e4     0x4  Data  Lc  TestMgr.obj [2]
TestMgr__EngageTest     0x0802f281    0x2e  Code  Gb  TestMgr.obj [2]
TestMgr__Handler        0x0802f279     0x8  Code  Gb  TestMgr.obj [2]
TestMgr__Initialize     0x0802f249    0x30  Code  Gb  TestMgr.obj [2]
TestMgr__SetPhase       0x0802f2af     0x8  Code  Gb  TestMgr.obj [2]
TestMgr__SetStep        0x0802f2b7     0x8  Code  Gb  TestMgr.obj [2]
TestMgr__SetStorage     0x0802f2bf     0x6  Code  Gb  TestMgr.obj [2]
Test_Cycle_Engaged      0x2000457a     0x1  Data  Lc  API012Exp.obj [2]
Test_Manager_State      0x2000042d     0x1  Data  Lc  TestMgr.obj [2]
Test_Manager_Transitioned
                        0x20004f9a     0x1  Data  Lc  TestMgr.obj [2]
Test_POR_Time           0x20004f5c     0x1  Data  Lc  PORTimeMonitor.obj [2]
ThermistorFaultMonitor__CycleStarted
                        0x08011617     0xc  Code  Gb  ThermistorFaultMonitor.obj [2]
ThermistorFaultMonitor__Execution
                        0x080115eb    0x2c  Code  Gb  ThermistorFaultMonitor.obj [2]
ThermistorFaultMonitor__GetShortedThreshold
                        0x08011623     0x8  Code  Gb  ThermistorFaultMonitor.obj [2]
ThermistorFaultMonitor__GetTemperature
                        0x0801162b     0x8  Code  Gb  ThermistorFaultMonitor.obj [2]
ThermistorFaultMonitor__Initialize
                        0x0801158d    0x5e  Code  Gb  ThermistorFaultMonitor.obj [2]
ThermistorOpenFaultExecute
                        0x0801c2c5    0x26  Code  Lc  ThermistorOpenMonitor.obj [2]
ThermistorOpenFaultInitialize
                        0x0801c2eb     0xe  Code  Lc  ThermistorOpenMonitor.obj [2]
ThermistorOpenFaultMonitor__Execution
                        0x0801c1d5     0x8  Code  Gb  ThermistorOpenMonitor.obj [2]
ThermistorOpenFaultMonitor__ExitFault
                        0x0801c1dd     0x8  Code  Gb  ThermistorOpenMonitor.obj [2]
ThermistorOpenFaultMonitor__Initialize
                        0x0801c1cd     0x8  Code  Gb  ThermistorOpenMonitor.obj [2]
ThermistorShortedFaultExecute
                        0x0801c405    0x26  Code  Lc  ThermistorShortedMonitor.obj [2]
ThermistorShortedFaultInitialize
                        0x0801c42b     0xe  Code  Lc  ThermistorShortedMonitor.obj [2]
ThermistorShortedFaultMonitor__Execution
                        0x0801c305     0x8  Code  Gb  ThermistorShortedMonitor.obj [2]
ThermistorShortedFaultMonitor__ExitFault
                        0x0801c30d     0x8  Code  Gb  ThermistorShortedMonitor.obj [2]
ThermistorShortedFaultMonitor__Initialize
                        0x0801c2fd     0x8  Code  Gb  ThermistorShortedMonitor.obj [2]
Thermistor_Fault_Monitor_Is_Active
                        0x20004e2e     0x1  Data  Lc  ThermistorFaultMonitor.obj [2]
Thermistor_High_Threshold
                        0x20004e30     0x2  Data  Lc  ThermistorFaultMonitor.obj [2]
Thermistor_Open_Fault_State
                        0x20004f9c     0x1  Data  Lc  ThermistorOpenMonitor.obj [2]
Thermistor_Shorted_Fault_State
                        0x20004f9d     0x1  Data  Lc  ThermistorShortedMonitor.obj [2]
This                    0x200043a8     0x4  Data  Lc  LoadsControl.obj [2]
This_Pc                 0x20003f08     0x4  Data  Lc  PumpControl.obj [2]
Tick                    0x200049ab     0x1  Data  Lc  MoisturePreventionMonitor.obj [2]
TimeCapture__ChannelConfig
                        0x0802becd    0x4a  Code  Gb  TimeCapture.obj [2]
TimeCapture__EnableEventInterrupt
                        0x0802bf17     0x2  Code  Gb  TimeCapture.obj [2]
TimeCapture__EnablePostEventInterrupt
                        0x0802bf19    0x28  Code  Gb  TimeCapture.obj [2]
TimeCapture__InterruptHandler
                        0x0802bf69    0x1a  Code  Gb  TimeCapture.obj [2]
TimeCapture__ReadTimerCnt
                        0x0802bf51    0x12  Code  Gb  TimeCapture.obj [2]
TimeCapture__SetPostEventInterruptDelay
                        0x0802bf63     0x6  Code  Gb  TimeCapture.obj [2]
TimeCapture__Start      0x0802bf41    0x10  Code  Gb  TimeCapture.obj [2]
TimeElapse_TimeCount    0x200003ec     0x2  Data  Gb  TimeElapse.obj [2]
TimeElapse__Initialize  0x0800e215     0xc  Code  Gb  TimeElapse.obj [2]
TimeElapse__NVDataRestore
                        0x0800e221     0xe  Code  Gb  TimeElapse.obj [2]
TimeElapse__Pause       0x0800e25f     0xc  Code  Gb  TimeElapse.obj [2]
TimeElapse__Resume      0x0800e26b     0xc  Code  Gb  TimeElapse.obj [2]
TimeElapse__Task        0x0800e22f    0x26  Code  Gb  TimeElapse.obj [2]
TimeElapse__Terminate   0x0800e255     0xa  Code  Gb  TimeElapse.obj [2]
TimedValveActivationEntry
                        0x0800bd89    0x38  Code  Lc  NormalFill.obj [2]
Timed_Fill_Flow_Rate    0x20004ab6     0x2  Data  Lc  NormalFill.obj [2]
Timed_Fill_Running      0x20004195     0x1  Data  Lc  DishAuxVar.obj [2]
TimeoutDo               0x08010e2f    0x2c  Code  Lc  HeaterShadowing.obj [2]
TimeoutEntry            0x08010e27     0x8  Code  Lc  HeaterShadowing.obj [2]
TimeoutState            0x20004269     0x1  Data  Lc  OWICalibrationProcess.obj [2]
Timer1usFreeCntr        0x080202b1    0x1e  Code  Lc  Timer.obj [2]
TimerBusFreq            0x080202cf    0x18  Code  Lc  Timer.obj [2]
TimerInit               0x080200a3    0xd0  Code  Lc  Timer.obj [2]
TimerInputCaptureConfig
                        0x08020229    0x88  Code  Lc  Timer.obj [2]
TimerInterruptExt__SetupPerInt
                        0x0802bec9     0x2  Code  Gb  TimerInterruptExt.obj [2]
TimerInterrupt__ConvertCyclesToUs
                        0x0801f2f3    0x20  Code  Gb  TimerInterrupt.obj [2]
TimerInterrupt__Initialize
                        0x0801f289    0x30  Code  Gb  TimerInterrupt.obj [2]
TimerInterrupt__SetLongInterval
                        0x0801f2b9    0x3a  Code  Gb  TimerInterrupt.obj [2]
TimerOutputConfig       0x0802019d    0x80  Code  Lc  Timer.obj [2]
TimerValidate           0x08020173    0x1c  Code  Lc  Timer.obj [2]
Timer_CatchTimer        0x20003f64    0x30  Data  Lc  Timer.obj [2]
Timer_Count             0x20004890    0x10  Data  Lc  Timer.obj [2]
Timer_Data              0x200003e8     0x4  Data  Lc  TimeElapse.obj [2]
Timer_PC_Control_Handle
                        0x20004f54     0x4  Data  Lc  Mode.obj [2]
Timer_ProcessCapture    0x080203f9   0x360  Code  Gb  Timer.obj [2]
Timer__CaptureStart     0x0801fde5   0x172  Code  Gb  Timer.obj [2]
Timer__Config           0x0801fb51    0x86  Code  Gb  Timer.obj [2]
Timer__GetCaptureDuration
                        0x0801ff57    0x3a  Code  Gb  Timer.obj [2]
Timer__GetCount         0x0801fceb    0x5c  Code  Gb  Timer.obj [2]
Timer__Initialize       0x0801fb31    0x20  Code  Gb  Timer.obj [2]
Timer__OutputCompareStart
                        0x0801fd47    0x36  Code  Gb  Timer.obj [2]
Timer__OutputCompareStartFromLast
                        0x0801fd89    0x54  Code  Gb  Timer.obj [2]
Timer__PwmSetDutyCycle  0x08020047    0x2a  Code  Gb  Timer.obj [2]
Timer__PwmStart         0x0801ff95    0xb2  Code  Gb  Timer.obj [2]
Timer__PwmStop          0x08020079    0x2a  Code  Gb  Timer.obj [2]
Timer__ReStartCount     0x0801fc6f    0x7c  Code  Gb  Timer.obj [2]
Timer__StartCount       0x0801fbd7    0x98  Code  Gb  Timer.obj [2]
TimingAnalysis__GetTaskInfo
                        0x0801f0f7    0x28  Code  Gb  TimingAnalysis.obj [2]
TimingAnalysis__Initialize
                        0x0801effd    0x2e  Code  Gb  TimingAnalysis.obj [2]
TimingAnalysis__SampleInterrupt
                        0x0801f0bb    0x3c  Code  Gb  TimingAnalysis.obj [2]
TimingAnalysis__SampleTask
                        0x0801f02b    0x90  Code  Gb  TimingAnalysis.obj [2]
Total_Restart_Cnt       0x20003de6     0x2  Data  Gb  Mcl.obj [2]
Total_Start_Cnt         0x20003dea     0x2  Data  Gb  Mcl.obj [2]
TransitionLoadHandler   0x08022a9d   0x210  Code  Lc  CrossLoads.obj [2]
TriacCurrentMonitor__Execution
                        0x0800f713    0x10  Code  Gb  TriacCurrentMonitor.obj [2]
TriacCurrentMonitor__ExitFault
                        0x0800f723     0x8  Code  Gb  TriacCurrentMonitor.obj [2]
TriacCurrentMonitor__Initialize
                        0x0800f529   0x1ea  Code  Gb  TriacCurrentMonitor.obj [2]
TriacDiagnosticStart    0x0801bcf7     0x8  Code  Lc  TriacVoltageMonitor.obj [2]
TriacDiagnostic_Data    0x20004b50    0x18  Data  Lc  TriacVoltageMonitor.obj [2]
TriacDiagnostic_Loads_Status
                        0x2000497c     0x8  Data  Lc  TriacVoltageMonitor.obj [2]
TriacDiagnostic_Param   0x2000496c     0xc  Data  Lc  TriacVoltageMonitor.obj [2]
TriacDiagnostic_Voltage_Range
                        0x20004979     0x1  Data  Lc  TriacVoltageMonitor.obj [2]
TriacDiagnostic_Voltage_Value
                        0x20004984     0x2  Data  Lc  TriacVoltageMonitor.obj [2]
TriacMci_Allocation     0x20004f86     0x1  Data  Lc  TriacMci.obj [2]
TriacMci_Data           0x20004f84     0x2  Data  Lc  TriacMci.obj [2]
TriacMci__Allocate      0x08032d8f    0x12  Code  Gb  TriacMci.obj [2]
TriacMci__AsyncProcess  0x08032e79    0x12  Code  Gb  TriacMci.obj [2]
TriacMci__GetProcessed  0x08032e63    0x16  Code  Gb  TriacMci.obj [2]
TriacMci__GetRequested  0x08032e4b    0x18  Code  Gb  TriacMci.obj [2]
TriacMci__GetStatus     0x08032e8b    0x16  Code  Gb  TriacMci.obj [2]
TriacMci__Initialize    0x08032d7d    0x12  Code  Gb  TriacMci.obj [2]
TriacMci__InitializeInstance
                        0x08032da1    0x12  Code  Gb  TriacMci.obj [2]
TriacMci__Process       0x08032dd3    0x78  Code  Gb  TriacMci.obj [2]
TriacMci__Request       0x08032db3    0x20  Code  Gb  TriacMci.obj [2]
TriacSetRef             0x0800fd07    0x3a  Code  Lc  TriacCurrentMonitor.obj [2]
TriacShortedDrainFaultMonitor__Execution
                        0x080241cf    0xca  Code  Gb  TriacShortedDrainFaultMonitor.obj [2]
TriacShortedDrainFaultMonitor__Initialize
                        0x080241ad    0x22  Code  Gb  TriacShortedDrainFaultMonitor.obj [2]
TriacShortedDrainMotorFaultMonitorExecute
                        0x08024423    0x26  Code  Lc  TriacShortedDrainFaultMonitor.obj [2]
TriacShortedDrainMotorFaultMonitorInitialize
                        0x08024449     0xe  Code  Lc  TriacShortedDrainFaultMonitor.obj [2]
TriacVoltageMonitorExecute
                        0x0801c01b    0x30  Code  Lc  TriacVoltageMonitor.obj [2]
TriacVoltageMonitorInitialize
                        0x0801c04b     0x8  Code  Lc  TriacVoltageMonitor.obj [2]
TriacVoltageMonitor__Execution
                        0x0801bc87    0x5e  Code  Gb  TriacVoltageMonitor.obj [2]
TriacVoltageMonitor__GetLoad_Status
                        0x0801bcff    0x10  Code  Gb  TriacVoltageMonitor.obj [2]
TriacVoltageMonitor__InitISRVariables
                        0x0801bce5    0x12  Code  Gb  TriacVoltageMonitor.obj [2]
TriacVoltageMonitor__Initialize
                        0x0801bbf5    0x92  Code  Gb  TriacVoltageMonitor.obj [2]
TriacVoltage_Status     0x2000497a     0x1  Data  Lc  TriacVoltageMonitor.obj [2]
Triac_Debounce_Timer    0x20004238     0x1  Data  Lc  TriacCurrentMonitor.obj [2]
Triac_Diag_Dispenser_Status
                        0x2000422b     0x1  Data  Lc  TriacCurrentMonitor.obj [2]
Triac_Diag_Diverter_Status
                        0x20004229     0x1  Data  Lc  TriacCurrentMonitor.obj [2]
Triac_Diag_Drain_Pump_Status
                        0x20004225     0x1  Data  Lc  TriacCurrentMonitor.obj [2]
Triac_Diag_Fill_Valve_Status
                        0x20004227     0x1  Data  Lc  TriacCurrentMonitor.obj [2]
Triac_Diag_Lower_Tank_Status
                        0x20004231     0x1  Data  Lc  TriacCurrentMonitor.obj [2]
Triac_Diag_Regeneration_Status
                        0x2000422f     0x1  Data  Lc  TriacCurrentMonitor.obj [2]
Triac_Diag_Upper_Tank_Status
                        0x20004233     0x1  Data  Lc  TriacCurrentMonitor.obj [2]
Triac_Diag_Vent_Status  0x2000422d     0x1  Data  Lc  TriacCurrentMonitor.obj [2]
Triac_Ref_Timer         0x20004237     0x1  Data  Lc  TriacCurrentMonitor.obj [2]
Triac_Shorted_Drain_Motor_Fault_Monitor_State
                        0x20004f9f     0x1  Data  Lc  TriacShortedDrainFaultMonitor.obj [2]
Triac_Voltage_Monitor_State
                        0x20004fa0     0x1  Data  Lc  TriacVoltageMonitor.obj [2]
TriacsDiagnosticGetStatus
                        0x0800fa49    0x36  Code  Lc  TriacCurrentMonitor.obj [2]
TriacsDiagnosticHandler
                        0x0800fa85   0x188  Code  Lc  TriacCurrentMonitor.obj [2]
TriacsDiagnosticUpdateRange
                        0x0800fc0d    0xfa  Code  Lc  TriacCurrentMonitor.obj [2]
Triacs_Diagnostic       0x2000421c     0x8  Data  Gb  TriacCurrentMonitor.obj [2]
TridgeDetergentBuildFsmVar
                        0x08030b5f    0x10  Code  Lc  TridgeDetergent.obj [2]
TridgeDetergentFsmEvent
                        0x08030af9    0x66  Code  Lc  TridgeDetergent.obj [2]
TridgeDetergentFsmExecute
                        0x08030abf    0x3a  Code  Lc  TridgeDetergent.obj [2]
TridgeDetergentFsmInitialize
                        0x08030ab9     0x6  Code  Lc  TridgeDetergent.obj [2]
TridgeDetergent__Initialize
                        0x08030b6f    0x44  Code  Gb  TridgeDetergent.obj [2]
TridgeDetergent__Manager
                        0x08030bb3    0xe2  Code  Gb  TridgeDetergent.obj [2]
Tridge_Detergent_Data   0x20004074    0x44  Data  Lc  TridgeDetergent.obj [2]
Tridge_Detergent_NV_Data
                        0x200003f0    0x18  Data  Lc  TridgeDetergent.obj [2]
TriggerFaultReaction    0x08005509    0x60  Code  Lc  Fault.obj [2]
TriggerPreFaultReaction
                        0x08005569    0x4c  Code  Lc  Fault.obj [2]
TriggerTriac            0x0802b171   0x156  Code  Lc  MclTriacDrive.obj [2]
TurbidityVoltage        0x20004f58     0x4  Data  Lc  OWICalibrationProcess.obj [2]
UART2_Break             0x200042ac     0x1  Data  Lc  Uart.obj [2]
UART2_LastData          0x200042e0     0x4  Data  Lc  Uart.obj [2]
UART2_Rx_Buffer         0x200042b4    0x2c  Data  Lc  Uart.obj [2]
UART2_Rx_Read_Index     0x200042ab     0x1  Data  Lc  Uart.obj [2]
UART2_Rx_Write_Index    0x200042aa     0x1  Data  Lc  Uart.obj [2]
UART2_Tx_Buffer         0x20004b68    0x18  Data  Lc  Uart.obj [2]
UART2_Tx_Read_Index     0x200042a9     0x1  Data  Lc  Uart.obj [2]
UART2_Tx_Write_Index    0x200042a8     0x1  Data  Lc  Uart.obj [2]
UART6_Break             0x200042b1     0x1  Data  Lc  Uart.obj [2]
UART6_LastData          0x200042e4     0x4  Data  Lc  Uart.obj [2]
UART6_Rx_Buffer         0x20004708    0x2c  Data  Lc  Uart.obj [2]
UART6_Rx_Read_Index     0x200042b0     0x1  Data  Lc  Uart.obj [2]
UART6_Rx_Write_Index    0x200042af     0x1  Data  Lc  Uart.obj [2]
UART6_Tx_Buffer         0x20004b80    0x18  Data  Lc  Uart.obj [2]
UART6_Tx_Read_Index     0x200042ae     0x1  Data  Lc  Uart.obj [2]
UART6_Tx_Write_Index    0x200042ad     0x1  Data  Lc  Uart.obj [2]
UART_PTR                0x08026b54    0x1c  Data  Lc  Uart.obj [2]
Uart_Data               0x200042fe     0x1  Data  Gb  Win.obj [2]
Uart_Error              0x200042ff     0x1  Data  Gb  Win.obj [2]
Uart__Clear             0x08026819    0x22  Code  Gb  Uart.obj [2]
Uart__ClearTx           0x0802683b    0x24  Code  Gb  Uart.obj [2]
Uart__Disable           0x08026a8d    0xc2  Code  Gb  Uart.obj [2]
Uart__Enable            0x08026871   0x214  Code  Gb  Uart.obj [2]
Uart__GetStatus         0x08026ded   0x104  Code  Gb  Uart.obj [2]
Uart__Handler           0x08026ef1    0x42  Code  Gb  Uart.obj [2]
Uart__Initialize        0x08026671   0x188  Code  Gb  Uart.obj [2]
Uart__Interrupt2        0x08026f41    0xac  Code  Gb  Uart.obj [2]
Uart__Interrupt3_4_5_6  0x08026ff5    0xae  Code  Gb  Uart.obj [2]
Uart__Read              0x08026bf5    0x96  Code  Gb  Uart.obj [2]
Uart__ReadByte          0x08026ca1    0x16  Code  Gb  Uart.obj [2]
Uart__SendBreak         0x08026cb7    0x94  Code  Gb  Uart.obj [2]
Uart__StopBreak         0x08026d51    0x8a  Code  Gb  Uart.obj [2]
Uart__Write             0x08026b71    0x7c  Code  Gb  Uart.obj [2]
Uart__WriteByte         0x08026c95     0xc  Code  Gb  Uart.obj [2]
UnderVoltage_Deb        0x20004f51     0x1  Data  Lc  MclTriacDrive.obj [2]
UnknownPositionDo       0x08010c87    0x1e  Code  Lc  HeaterShadowing.obj [2]
UnknownPositionEntry    0x08010c7f     0x8  Code  Lc  HeaterShadowing.obj [2]
UpdatSaltAlarmLedStatus
                        0x08023e8b    0xb0  Code  Gb  SaltSensingMonitor.obj [2]
UpdateAlgorithmInputs   0x08010a8d    0xc6  Code  Gb  HeaterShadowing.obj [2]
UpdateBlockedMessagesTimer
                        0x080170a1    0x20  Code  Lc  Reveal.obj [2]
UpdateChecksum          0x08012c81    0x2c  Code  Lc  Callback.obj [2]
UpdateCustomCycleData   0x08008669    0x18  Code  Lc  Statistics.obj [2]
UpdateCycleData         0x0800df39    0x64  Code  Lc  StatisticsDish.obj [2]
UpdateCyclesWithoutSalt
                        0x0800dfe9    0x9c  Code  Lc  StatisticsDish.obj [2]
UpdateDOSPinState       0x080111f5    0x2c  Code  Lc  DoorOpeningSystemMonitor.obj [2]
UpdateDemoCycleDuration
                        0x0800e0d1    0x82  Code  Lc  StatisticsDish.obj [2]
UpdateDispensingTimer   0x08030dd3    0x12  Code  Lc  TridgeDetergent.obj [2]
UpdateFaultIDs          0x080053e5    0x46  Code  Lc  Fault.obj [2]
UpdateGISequence        0x080198e5    0x32  Code  Lc  Hbl.obj [2]
UpdateHmiData           0x0800a689    0xcc  Code  Lc  CartridgeDetectionMonitor.obj [2]
UpdateInstabilityEvent  0x0800d539   0x112  Code  Lc  StabilityControl.obj [2]
UpdateLLISequence       0x080198ad    0x34  Code  Lc  Hbl.obj [2]
UpdateLastFrequencyTimingEvents
                        0x080313a5    0x14  Code  Lc  FeedbackLLI.obj [2]
UpdateLobeThresholds    0x08021fad   0x166  Code  Lc  ZeroCross.obj [2]
UpdateLobeThresholds::ZeroCross_Cycle_Counter
                        0x2000433e     0x1  Data  Lc  ZeroCross.obj [2]
UpdateLobeThresholds::ZeroCross_Cycles_Sample_Counter
                        0x20004348     0x2  Data  Lc  ZeroCross.obj [2]
UpdateLobeThresholds::ZeroCross_Samples_Counter
                        0x20004346     0x2  Data  Lc  ZeroCross.obj [2]
UpdateMaskedArray       0x0802e9d5    0x36  Code  Lc  API019ProductInfo.obj [2]
UpdateMaskedRegister    0x0801ebb1     0xe  Code  Lc  Gpio.obj [2]
UpdateOWIStatus         0x0800e159    0x40  Code  Lc  StatisticsDish.obj [2]
UpdateOkayToStartCycle  0x08004ced    0x1e  Code  Lc  Supervisor.obj [2]
UpdateOptionsCount      0x0800e199    0x62  Code  Lc  StatisticsDish.obj [2]
UpdateParamsPointerAndAlignCountersToThresholds
                        0x0800c8b5    0x40  Code  Lc  HeaterCalcificationDetectionMonitor.obj [2]
UpdatePosition          0x08007949    0x10  Code  Lc  NVData.obj [2]
UpdateReference         0x08030a6d    0x42  Code  Lc  AnalogLLI.obj [2]
UpdateRinseAidResult    0x0800dfd3    0x16  Code  Lc  StatisticsDish.obj [2]
UpdateRinseAidStatus    0x0800d9c3    0x20  Code  Gb  RinseAidMonitor.obj [2]
UpdateServiceEnteredCycleOdometer
                        0x0800df9d    0x36  Code  Lc  StatisticsDish.obj [2]
UpdateStatistics        0x0800eca5     0x8  Code  Lc  ClassAFill.obj [2]
UpdateStatistics        0x0800f0dd     0x8  Code  Lc  TankFill.obj [2]
UpdateTestData          0x0802e9c5    0x10  Code  Lc  API019ProductInfo.obj [2]
UpdateTimer             0x0802da2b    0x28  Code  Lc  API010PollVar.obj [2]
UpdateTotalCyclesInHCDLockout
                        0x0800e089    0x42  Code  Lc  StatisticsDish.obj [2]
Update_Digital_Inputs   0x08029e8d    0x42  Code  Lc  APIMotorControl.obj [2]
Update_Digital_Inputs::motor_index
                        0x2000392a     0x1  Data  Lc  APIMotorControl.obj [2]
Update_Error            0x08029ecf    0x42  Code  Lc  APIMotorControl.obj [2]
Update_Error::motor_index
                        0x2000392b     0x1  Data  Lc  APIMotorControl.obj [2]
Upper_Target_Reached    0x200001a8     0x1  Data  Lc  Heat.obj [2]
Utilities__ConvertArrayTo16bits
                        0x080178cb     0xc  Code  Gb  Utilities.obj [2]
Utilities__ConvertArrayTo32bits
                        0x080178ad    0x16  Code  Gb  Utilities.obj [2]
Utilities__GetBitInArray
                        0x080178ff    0x14  Code  Gb  Utilities.obj [2]
Utilities__Merg2BytesTo16bits
                        0x080178c3     0x8  Code  Gb  Utilities.obj [2]
Utilities__SetBitInArray
                        0x080178d9    0x26  Code  Gb  Utilities.obj [2]
VARIABLE_SET_OPERATION_MAP
                        0x08032c14     0x8  Data  Lc  SetVariable.obj [2]
VARIABLE_SIZE           0x08008c80    0x10  Data  Gb  Variable.obj [2]
VIRTUALPIN_TABLE        0x08032054   0x200  Data  Gb  VirtualPin.obj [2]
VRM_Data                0x20004d78     0x4  Data  Lc  VoltageRangeMonitor.obj [2]
VRM_Good_Range_Counter  0x20004d6e     0x2  Data  Lc  VoltageRangeMonitor.obj [2]
VRM_High_Range_Counter  0x20004d72     0x2  Data  Lc  VoltageRangeMonitor.obj [2]
VRM_Instability_Counter
                        0x20004d74     0x2  Data  Lc  VoltageRangeMonitor.obj [2]
VRM_Instant_Voltage_Range_Status
                        0x20004d6d     0x1  Data  Lc  VoltageRangeMonitor.obj [2]
VRM_Low_Range_Counter   0x20004d70     0x2  Data  Lc  VoltageRangeMonitor.obj [2]
VSM_Drain_Is_Running    0x20003f05     0x1  Data  Lc  PumpControl.obj [2]
VWI_Is_CalibrationActive
                        0x200044a0     0x1  Data  Gb  Vwi.obj [2]
VWI_Is_Present          0x2000449f     0x1  Data  Gb  Vwi.obj [2]
VWI_Is_SpeedCompActive  0x200044a1     0x1  Data  Gb  Vwi.obj [2]
VWI_Last_Index          0x200044a2     0x1  Data  Lc  Vwi.obj [2]
VWI_No_Water_Previous_State
                        0x20004ccc     0x1  Data  Lc  TriacShortedDrainFaultMonitor.obj [2]
VWI_No_Water_State      0x20004ccb     0x1  Data  Lc  TriacShortedDrainFaultMonitor.obj [2]
VWI_Sig_Low_Water_Threshold
                        0x2000449e     0x1  Data  Gb  Vwi.obj [2]
VWI_Signal_Cal_Target   0x2000449d     0x1  Data  Lc  Vwi.obj [2]
Valid_Source_Detected   0x20004f4d     0x1  Data  Lc  BrownOut.obj [2]
ValidateProcessControl  0x0802df7d    0x48  Code  Lc  LoadsControl.obj [2]
VariableModification    0x08017cd7    0x6a  Code  Lc  Modifier.obj [2]
Variable_General_Flags  0x2000042e     0x1  Data  Lc  Variable.obj [2]
Variable_General_Purpose
                        0x20000408     0xc  Data  Lc  Variable.obj [2]
Variable__GetByIndex    0x080086b9    0x24  Code  Gb  Variable.obj [2]
Variable__GetTranslatedValue
                        0x08008795    0x56  Code  Gb  Variable.obj [2]
Variable__GetTypeByIndex
                        0x080087eb    0x14  Code  Gb  Variable.obj [2]
Variable__GetValue      0x080086dd    0xb8  Code  Gb  Variable.obj [2]
Variable__SetValue      0x0800880d   0x310  Code  Gb  Variable.obj [2]
Vent_Fault_Params       0x20004254     0x4  Data  Lc  TriacCurrentMonitor.obj [2]
Vent_Previous_State     0x20004cca     0x1  Data  Lc  TriacShortedDrainFaultMonitor.obj [2]
Vent_Regen_Load         0x20004235     0x1  Data  Lc  TriacCurrentMonitor.obj [2]
Vent_State              0x20004cc9     0x1  Data  Lc  TriacShortedDrainFaultMonitor.obj [2]
VerifyEngagedTimerIsRunning
                        0x08009545    0x14  Code  Lc  Mode.obj [2]
VerifyEnteringTimerIsRunning
                        0x08009559    0x14  Code  Lc  Mode.obj [2]
VerifyIfRequestsChanged
                        0x0801bfbb    0x22  Code  Lc  TriacVoltageMonitor.obj [2]
VerifyLoads             0x0801bf85    0x10  Code  Lc  TriacVoltageMonitor.obj [2]
VerifyRequests          0x0801bf95    0x26  Code  Lc  TriacVoltageMonitor.obj [2]
Very_Low_Water_Counter  0x20004bcc     0x2  Data  Lc  StabilityControl.obj [2]
VirtualPin__GetNumOf    0x080296b5     0x4  Code  Gb  VirtualPin.obj [2]
Volt_At_Cycle_End_Prev  0x20004f52     0x2  Data  Lc  MclTriacDrive.obj [2]
VoltageOutRangeManageSubCycle
                        0x08024643    0x18  Code  Lc  VoltageRangeMonitor.obj [2]
VoltageRangeMonitor__Execution
                        0x08024495   0x1ae  Code  Gb  VoltageRangeMonitor.obj [2]
VoltageRangeMonitor__Initialize
                        0x08024461    0x34  Code  Gb  VoltageRangeMonitor.obj [2]
Voltage_Range_Status    0x20004d6c     0x1  Data  Gb  VoltageRangeMonitor.obj [2]
VwiMainHandler          0x0801a685   0x112  Code  Lc  Vwi.obj [2]
VwiReloadMotor          0x0801a637    0x4e  Code  Lc  Vwi.obj [2]
VwiStabilityCheck       0x0801d087    0x34  Code  Lc  SensedDrainModel.obj [2]
Vwi_Analyze_Phase       0x2000449b     0x1  Data  Lc  Vwi.obj [2]
Vwi_Calibration_Correction
                        0x20004495     0x1  Data  Gb  Vwi.obj [2]
Vwi_Calibration_Correction_NVData
                        0x20000414     0x4  Data  Lc  Vwi.obj [2]
Vwi_Calibration_First_Read
                        0x200044b4     0x2  Data  Lc  Vwi.obj [2]
Vwi_Calibration_Temp_Correction
                        0x200044a4     0x1  Data  Lc  Vwi.obj [2]
Vwi_Calibration_Time    0x200044be     0x2  Data  Lc  Vwi.obj [2]
Vwi_Debounce_Timer_Handle
                        0x200044c2     0x2  Data  Lc  Vwi.obj [2]
Vwi_HeavySignalQueue    0x200044c8     0x8  Data  Lc  Vwi.obj [2]
Vwi_Heavy_Filt_Sig_No_Comp
                        0x200044b0     0x2  Data  Lc  Vwi.obj [2]
Vwi_Heavy_Filt_Signal   0x200044aa     0x2  Data  Lc  Vwi.obj [2]
Vwi_Heavy_Filt_Variance
                        0x200044b2     0x2  Data  Lc  Vwi.obj [2]
Vwi_Last_Valid_Status   0x20004496     0x1  Data  Lc  Vwi.obj [2]
Vwi_Light_Filt_Signal   0x200044ae     0x2  Data  Lc  Vwi.obj [2]
Vwi_Motor_Type          0x2000449c     0x1  Data  Lc  Vwi.obj [2]
Vwi_Motor_current       0x20004497     0x1  Data  Lc  Vwi.obj [2]
Vwi_Motor_prev          0x20004498     0x1  Data  Lc  Vwi.obj [2]
Vwi_Prev_Heavy_Filt_Sig_No_Comp
                        0x200044ba     0x2  Data  Lc  Vwi.obj [2]
Vwi_Prev_Heavy_Filt_Signal
                        0x200044b8     0x2  Data  Lc  Vwi.obj [2]
Vwi_Prev_Heavy_Filt_Variance
                        0x200044bc     0x2  Data  Lc  Vwi.obj [2]
Vwi_Prev_Light_Filt_Signal
                        0x200044b6     0x2  Data  Lc  Vwi.obj [2]
Vwi_Prev_Status_Raw     0x2000449a     0x1  Data  Lc  Vwi.obj [2]
Vwi_Signal              0x200044a8     0x2  Data  Lc  Vwi.obj [2]
Vwi_Signal_Backup       0x200044c4     0x4  Data  Lc  Vwi.obj [2]
Vwi_Signal_Correction   0x200044a3     0x1  Data  Lc  Vwi.obj [2]
Vwi_Stable_Signal_Variance_Thr
                        0x200044a6     0x1  Data  Lc  Vwi.obj [2]
Vwi_Status              0x20004494     0x1  Data  Gb  Vwi.obj [2]
Vwi_Status_Raw          0x20004499     0x1  Data  Lc  Vwi.obj [2]
Vwi_Timer_Handle        0x200044c0     0x2  Data  Lc  Vwi.obj [2]
Vwi_Variance            0x200044ac     0x2  Data  Lc  Vwi.obj [2]
Vwi_Water_Signal_Thr    0x200044a5     0x1  Data  Lc  Vwi.obj [2]
Vwi__GetHeavyFiltSignal
                        0x0801a797     0x6  Code  Gb  Vwi.obj [2]
Vwi__GetLastValidWaterStatus
                        0x0801a7a3     0x6  Code  Gb  Vwi.obj [2]
Vwi__GetSignal          0x0801a7af     0x6  Code  Gb  Vwi.obj [2]
Vwi__GetVariance        0x0801a7a9     0x6  Code  Gb  Vwi.obj [2]
Vwi__GetWaterStatus     0x0801a79d     0x6  Code  Gb  Vwi.obj [2]
Vwi__Handler            0x0801a613    0x24  Code  Gb  Vwi.obj [2]
Vwi__Initialize         0x0801a5bd    0x56  Code  Gb  Vwi.obj [2]
WHS_Function_Position   0x20003ea6     0x1  Data  Lc  HeaterCalcificationDetectionMonitor.obj [2]
WaitAFSubcycleExecution
                        0x0800eb85    0x36  Code  Lc  ClassAFill.obj [2]
WaitAFSubcycleExecution
                        0x0800efa7    0x4a  Code  Lc  TankFill.obj [2]
WaitForDelayBtwSamples  0x0800cf0b    0x20  Code  Lc  OwiVroRead.obj [2]
WaitForEnable           0x0800e4e7    0x18  Code  Lc  Maintain.obj [2]
WaitForInitialDelay     0x0800ced5    0x1a  Code  Lc  OwiVroRead.obj [2]
WaitForPauseEnd         0x0800ebbb    0x2e  Code  Lc  ClassAFill.obj [2]
WaitForPauseEnd         0x0800eff1    0x2e  Code  Lc  TankFill.obj [2]
WaitForPrefaultTimer    0x0800f32f    0x1a  Code  Lc  FillValveStuckOn.obj [2]
WaitForTankFillDelay    0x0800f02d    0x8c  Code  Lc  TankFill.obj [2]
WaitForTimer            0x0800f10f    0x2c  Code  Lc  FillValveStuckOn.obj [2]
WaitMcuResetTimer       0x08013e51    0x3e  Code  Lc  PumpControl.obj [2]
WaitStopped             0x08029031    0x5e  Code  Lc  AlternateCtrl.obj [2]
WaitStopped             0x08013cd7    0x72  Code  Lc  PumpControl.obj [2]
WaitSubcycleExecution   0x0800ebed    0x8e  Code  Lc  ClassAFill.obj [2]
WaitSubcycleExecution   0x080142e5    0x7c  Code  Lc  TankDrain.obj [2]
Wait_Param              0x200045fc     0x2  Data  Lc  MclFireAngleCtrl.obj [2]
WaitingDelayDo          0x08010ccb    0x64  Code  Lc  HeaterShadowing.obj [2]
WaitingDelayEntry       0x08010ca5    0x26  Code  Lc  HeaterShadowing.obj [2]
WashCommand_Counter     0x20003625     0x1  Data  Lc  SensedDrainProcess.obj [2]
WashCommand_Decrement   0x0801252b    0x44  Code  Lc  SensedDrainProcess.obj [2]
WashCommand_Previous    0x20003627     0x1  Data  Lc  SensedDrainProcess.obj [2]
WashHeaterFaultMonitor__CycleStarted
                        0x08011bd5    0x26  Code  Gb  WashHeaterFaultMonitor.obj [2]
WashHeaterFaultMonitor__Execution
                        0x08011b15    0xc0  Code  Gb  WashHeaterFaultMonitor.obj [2]
WashHeaterFaultMonitor__Execution::heater_prev_state
                        0x20000984     0x1  Data  Lc  WashHeaterFaultMonitor.obj [2]
WashHeaterFaultMonitor__Execution::pilot_relay_prev_state
                        0x20000986     0x1  Data  Lc  WashHeaterFaultMonitor.obj [2]
WashHeaterFaultMonitor__Execution::previous_door_status
                        0x20000987     0x1  Data  Lc  WashHeaterFaultMonitor.obj [2]
WashHeaterFaultMonitor__Execution::zc_prev_presence
                        0x20000985     0x1  Data  Lc  WashHeaterFaultMonitor.obj [2]
WashHeaterFaultMonitor__GetDisabledBitmap
                        0x08011c17     0x6  Code  Gb  WashHeaterFaultMonitor.obj [2]
WashHeaterFaultMonitor__GetHeaterConsistency
                        0x08011c11     0x6  Code  Gb  WashHeaterFaultMonitor.obj [2]
WashHeaterFaultMonitor__GetMonitorPrecondition
                        0x08011bfb     0x6  Code  Gb  WashHeaterFaultMonitor.obj [2]
WashHeaterFaultMonitor__GetStabilizationCounter
                        0x08011c01     0x6  Code  Gb  WashHeaterFaultMonitor.obj [2]
WashHeaterFaultMonitor__Initialize
                        0x08011a81    0x94  Code  Gb  WashHeaterFaultMonitor.obj [2]
WashHeaterFaultMonitor__RestartStabilizationCounter
                        0x08011c07     0xa  Code  Gb  WashHeaterFaultMonitor.obj [2]
WashHeaterFaultMonitor__SetHeaterDisabledBitmapBit
                        0x08011c1d    0x12  Code  Gb  WashHeaterFaultMonitor.obj [2]
WashMotorFaultMonitor__Execution
                        0x08023a31   0x12e  Code  Gb  WashMotorFaultMonitor.obj [2]
WashMotorFaultMonitor__Initialize
                        0x0802398d    0xa4  Code  Gb  WashMotorFaultMonitor.obj [2]
WashPumpCtrlExecuted    0x20004f96     0x1  Data  Lc  PumpFlushRequestMonitor.obj [2]
Wash_Heater_Consistency
                        0x20000980     0x1  Data  Lc  WashHeaterFaultMonitor.obj [2]
Wash_Heater_Fault_Monitor_Is_Active
                        0x20000983     0x1  Data  Lc  WashHeaterFaultMonitor.obj [2]
Wash_Motor_Fault        0x20004ca4     0x8  Data  Lc  WashMotorFaultMonitor.obj [2]
Wash_Motor_Fault_Id     0x20004c9e     0x1  Data  Lc  WashMotorFaultMonitor.obj [2]
Wash_Motor_First_Start_Spike_Timer
                        0x20004ca1     0x1  Data  Lc  WashMotorFaultMonitor.obj [2]
Wash_Motor_Previous_State
                        0x20004c9b     0x1  Data  Lc  WashMotorFaultMonitor.obj [2]
Wash_Motor_State        0x20004c9c     0x1  Data  Lc  WashMotorFaultMonitor.obj [2]
Wash_Probe_Temperature  0x20004e32     0x2  Data  Lc  ThermistorFaultMonitor.obj [2]
Wash_Probe_Value        0x200041c8     0x2  Data  Gb  DishAuxVar.obj [2]
Wash_Pump_Pilot_Type    0x20004f60     0x1  Data  Lc  PumpFlushRequestMonitor.obj [2]
Wash_Stop_Sent          0x20004f62     0x1  Data  Lc  PumpFlushRequestMonitor.obj [2]
WaterCounterGI_Allocation
                        0x20004d7c     0x1  Data  Lc  WaterCounterGI.obj [2]
WaterCounterGI_Data     0x20004d80     0xc  Data  Lc  WaterCounterGI.obj [2]
WaterCounterGI_LLI_Sequence
                        0x20004d7d     0x1  Data  Lc  WaterCounterGI.obj [2]
WaterCounterGI__Allocate
                        0x080327c7    0x12  Code  Gb  WaterCounterGI.obj [2]
WaterCounterGI__AsynchProcess
                        0x08032817   0x108  Code  Gb  WaterCounterGI.obj [2]
WaterCounterGI__Get     0x08032813     0x4  Code  Gb  WaterCounterGI.obj [2]
WaterCounterGI__GetConverted
                        0x0803291f    0x10  Code  Gb  WaterCounterGI.obj [2]
WaterCounterGI__Initialize
                        0x080327a9    0x1e  Code  Gb  WaterCounterGI.obj [2]
WaterCounterGI__InitializeInstance
                        0x080327d9    0x3a  Code  Gb  WaterCounterGI.obj [2]
Water_Counter           0x200041ca     0x2  Data  Gb  DishAuxVar.obj [2]
Water_Counter_GI_Sequence_ID_Old
                        0x20004197     0x1  Data  Lc  DishAuxVar.obj [2]
Water_Counter_Input_Sequence_Id_Old
                        0x200048fd     0x1  Data  Lc  FlowMeterFaultMonitor.obj [2]
Water_Loaded_Since_Last_Regen
                        0x2000010e     0x2  Data  Lc  DishAuxVar.obj [2]
Water_Present           0x200000f1     0x1  Data  Gb  DishAuxVar.obj [2]
Water_Tank_State        0x200000f4     0x1  Data  Gb  DishAuxVar.obj [2]
WinIncomingProcess      0x0801f891   0x240  Code  Lc  Win.obj [2]
WinOutgoingProcess      0x0801f743   0x146  Code  Lc  Win.obj [2]
Win_Break_Counter       0x2000431c     0x2  Data  Lc  Win.obj [2]
Win_Bus_Idle            0x200042f2     0x1  Data  Lc  Win.obj [2]
Win_Bus_Idle_Timer      0x200042f3     0x1  Data  Lc  Win.obj [2]
Win_Check_Index         0x20004314     0x2  Data  Lc  Win.obj [2]
Win_Check_Tx_Pointer    0x20004324     0x4  Data  Lc  Win.obj [2]
Win_Header              0x200042e8     0x8  Data  Lc  Win.obj [2]
Win_Node_Status         0x2000431a     0x2  Data  Lc  Win.obj [2]
Win_Remaining_Data      0x20004316     0x2  Data  Lc  Win.obj [2]
Win_Retry               0x200042f4     0x1  Data  Lc  Win.obj [2]
Win_Retry_Collision     0x200042f5     0x1  Data  Lc  Win.obj [2]
Win_Rx_Buffer           0x20003828   0x100  Data  Lc  Win.obj [2]
Win_Rx_Crc              0x200042f1     0x1  Data  Lc  Win.obj [2]
Win_Rx_Index            0x20004318     0x2  Data  Lc  Win.obj [2]
Win_Rx_Message_State    0x200042f8     0x1  Data  Gb  Win.obj [2]
Win_Rx_Message_Time     0x20004300     0x1  Data  Lc  Win.obj [2]
Win_Rx_State            0x200042f7     0x1  Data  Lc  Win.obj [2]
Win_Timer               0x200042f0     0x1  Data  Lc  Win.obj [2]
Win_Tx_Buffer           0x200040b8    0x4c  Data  Lc  Win.obj [2]
Win_Tx_Message_State    0x200042f9     0x1  Data  Gb  Win.obj [2]
Win_Tx_Pointer          0x20004320     0x4  Data  Lc  Win.obj [2]
Win_Tx_State            0x200042f6     0x1  Data  Lc  Win.obj [2]
Win_Tx_Status           0x200042fa     0x1  Data  Lc  Win.obj [2]
Win__AllocateMessage    0x0801f669    0x12  Code  Gb  Win.obj [2]
Win__FreeIncomingMessage
                        0x0801f64f    0x1a  Code  Gb  Win.obj [2]
Win__GetAddress         0x0801f603     0x4  Code  Gb  Win.obj [2]
Win__GetBusStatus       0x0801f721    0x22  Code  Gb  Win.obj [2]
Win__GetIncomingMessage
                        0x0801f629    0x26  Code  Gb  Win.obj [2]
Win__Handle1ms          0x0801f607    0x22  Code  Gb  Win.obj [2]
Win__Initialize         0x0801f5a5    0x5e  Code  Gb  Win.obj [2]
Win__QueueMessage       0x0801f67b    0x80  Code  Gb  Win.obj [2]
Win__SendBreak          0x0801f6fb    0x12  Code  Gb  Win.obj [2]
Win__StopBreak          0x0801f70d    0x10  Code  Gb  Win.obj [2]
WriteTag                0x0800a75d   0x13c  Code  Lc  CartridgeDetectionMonitor.obj [2]
WriteTagData            0x20004760    0x10  Data  Lc  CartridgeDetectionMonitor.obj [2]
WriteTagMachine         0x0800a8fd    0x5e  Code  Lc  CartridgeDetectionMonitor.obj [2]
WriteTagMachineStatus   0x20004780     0x1  Data  Lc  CartridgeDetectionMonitor.obj [2]
WriteTagPull            0x0800a8c5    0x34  Code  Lc  CartridgeDetectionMonitor.obj [2]
WriteTagPush            0x0800a899    0x28  Code  Lc  CartridgeDetectionMonitor.obj [2]
WriteTagTimer           0x200049cb     0x1  Data  Lc  CartridgeDetectionMonitor.obj [2]
ZCRelayPilot_Allocation
                        0x200049e4     0x1  Data  Lc  ZCRelayPilot.obj [2]
ZCRelayPilot_Data       0x200049cc    0x18  Data  Lc  ZCRelayPilot.obj [2]
ZCRelayPilot__Allocate  0x08031c0f    0x12  Code  Gb  ZCRelayPilot.obj [2]
ZCRelayPilot__AsynchProcess
                        0x08031ccd   0x116  Code  Gb  ZCRelayPilot.obj [2]
ZCRelayPilot__GetProcessed
                        0x08031dfd    0x32  Code  Gb  ZCRelayPilot.obj [2]
ZCRelayPilot__GetRequested
                        0x08031de3    0x1a  Code  Gb  ZCRelayPilot.obj [2]
ZCRelayPilot__Initialize
                        0x08031bfd    0x12  Code  Gb  ZCRelayPilot.obj [2]
ZCRelayPilot__InitializeInstance
                        0x08031c21    0x6a  Code  Gb  ZCRelayPilot.obj [2]
ZCRelayPilot__Process   0x08031cad    0x20  Code  Gb  ZCRelayPilot.obj [2]
ZCRelayPilot__Request   0x08031c8b    0x22  Code  Gb  ZCRelayPilot.obj [2]
ZEROCROSS_LOBE_THRESHOLDS
                        0x08022148    0x90  Data  Lc  ZeroCross.obj [2]
ZeroCrossHandler        0x08018d11    0xd8  Code  Lc  Hbl.obj [2]
ZeroCrossLobeDetection  0x08021e21   0x184  Code  Lc  ZeroCross.obj [2]
ZeroCrossMonitor__Execution
                        0x08023595    0x4a  Code  Gb  ZeroCrossMonitor.obj [2]
ZeroCrossMonitor__Initialize
                        0x0802353d    0x58  Code  Gb  ZeroCrossMonitor.obj [2]
ZeroCross_Blackout      0x20004364     0x4  Data  Lc  ZeroCross.obj [2]
ZeroCross_Current_Neg_Lobe
                        0x20004360     0x4  Data  Lc  ZeroCross.obj [2]
ZeroCross_Current_Pos_Lobe
                        0x2000435c     0x4  Data  Lc  ZeroCross.obj [2]
ZeroCross_Cycle         0x20004342     0x2  Data  Lc  ZeroCross.obj [2]
ZeroCross_Cycle_Offset  0x20004344     0x2  Data  Lc  ZeroCross.obj [2]
ZeroCross_Cycle_Timer   0x20004340     0x2  Data  Lc  ZeroCross.obj [2]
ZeroCross_Debounce_Counter
                        0x2000433d     0x1  Data  Lc  ZeroCross.obj [2]
ZeroCross_Event         0x20004337     0x1  Data  Lc  ZeroCross.obj [2]
ZeroCross_Filter_In     0x20004330     0x4  Data  Lc  ZeroCross.obj [2]
ZeroCross_Filter_Out    0x2000434c    0x10  Data  Lc  ZeroCross.obj [2]
ZeroCross_Gpio_Pin      0x20004339     0x1  Data  Lc  ZeroCross.obj [2]
ZeroCross_Gpio_Port     0x20004338     0x1  Data  Lc  ZeroCross.obj [2]
ZeroCross_Index         0x20004cbc     0x1  Data  Lc  FeedbackLLI.obj [2]
ZeroCross_Lobe          0x20004336     0x1  Data  Lc  ZeroCross.obj [2]
ZeroCross_Lobe_Tracking
                        0x20004334     0x1  Data  Lc  ZeroCross.obj [2]
ZeroCross_Monitor_Is_Active
                        0x20004f69     0x1  Data  Lc  ZeroCrossMonitor.obj [2]
ZeroCross_Pin_Timer     0x20004328     0x8  Data  Lc  ZeroCross.obj [2]
ZeroCross_State         0x20004335     0x1  Data  Lc  ZeroCross.obj [2]
ZeroCross_Timer_Count_Id
                        0x2000433c     0x1  Data  Lc  ZeroCross.obj [2]
ZeroCross__AsyncHandler
                        0x08021c79    0x6a  Code  Gb  ZeroCross.obj [2]
ZeroCross__Config       0x08021c3d    0x3c  Code  Gb  ZeroCross.obj [2]
ZeroCross__FastHandler  0x08021ce3    0xba  Code  Gb  ZeroCross.obj [2]
ZeroCross__GetAngle     0x08021dab    0x48  Code  Gb  ZeroCross.obj [2]
ZeroCross__GetFrequency
                        0x08021d9d     0xe  Code  Gb  ZeroCross.obj [2]
ZeroCross__Initialize   0x08021be5    0x58  Code  Gb  ZeroCross.obj [2]
Zero_Cross_Present      0x20004f68     0x1  Data  Lc  ZeroCrossMonitor.obj [2]
Zero_Events_Sequence    0x2000433b     0x1  Data  Lc  ZeroCross.obj [2]
_DelayUntil             0x0801e505    0x74  Code  Lc  OS_Kern.o [6]
__DLIB_PERTHREAD$$Base  0x20000af0           --   Gb  - Linker created -
__DLIB_PERTHREAD$$Limit
                        0x20000af4           --   Gb  - Linker created -
__DMB                   0x080148b1          Code  Gb  CortexM0Plus_Macro.obj [2]
__DSB                   0x080148ab          Code  Gb  CortexM0Plus_Macro.obj [2]
__DataFlash_End {Abs}   0x0803ffff          Data  Gb  command line/config [3]
__DataFlash_End__ {Abs}
                        0x0803ffff          Data  Gb  command line/config [3]
__DataFlash_Start {Abs}
                        0x0803e800          Data  Gb  command line/config [3]
__DataFlash_Start__ {Abs}
                        0x0803e800          Data  Gb  command line/config [3]
__Debug_SF              0x08039000     0x2  Data  Gb  settingfile.bin [1]
__ICFEDIT_INTERRUPT_TABLE_start__ {Abs}
                        0x08003000          Data  Gb  command line/config [3]
__ICFEDIT_region_RAM_end__ {Abs}
                        0x20023fff          Data  Gb  command line/config [3]
__ICFEDIT_region_RAM_start__ {Abs}
                        0x20000000          Data  Gb  command line/config [3]
__ICFEDIT_region_ROM_end__ {Abs}
                        0x08038fff          Data  Gb  command line/config [3]
__ICFEDIT_region_ROM_start__ {Abs}
                        0x08003000          Data  Gb  command line/config [3]
__ICFEDIT_size_cstack__ {Abs}
                        0x00000400          Data  Gb  command line/config [3]
__ICFEDIT_size_heap__ {Abs}
                        0x00000004          Data  Gb  command line/config [3]
__ICFEDIT_size_stack_bottom__ {Abs}
                        0x00000010          Data  Gb  command line/config [3]
__ICFEDIT_size_stack_top__ {Abs}
                        0x00000010          Data  Gb  command line/config [3]
__ISB                   0x080148a5          Code  Gb  CortexM0Plus_Macro.obj [2]
__MRS_MSP               0x080148d1          Code  Gb  CortexM0Plus_Macro.obj [2]
__MRS_PSP               0x080148c5          Code  Gb  CortexM0Plus_Macro.obj [2]
__MSR_CONTROL           0x080148bb          Code  Gb  CortexM0Plus_Macro.obj [2]
__MSR_MSP               0x080148d7          Code  Gb  CortexM0Plus_Macro.obj [2]
__MSR_PSP               0x080148cb          Code  Gb  CortexM0Plus_Macro.obj [2]
__RAM_End {Abs}         0x20023fff          Data  Gb  command line/config [3]
__RAM_Size {Abs}        0x00023fff          Data  Gb  command line/config [3]
__RAM_Start {Abs}       0x20000000          Data  Gb  command line/config [3]
__RESETPRIMASK          0x080148dd          Code  Gb  CortexM0Plus_Macro.obj [2]
__REV_HalfWord          0x080148e1          Code  Gb  CortexM0Plus_Macro.obj [2]
__REV_Word              0x080148e5          Code  Gb  CortexM0Plus_Macro.obj [2]
__RunRegisterTest       0x08014915          Code  Gb  CortexM0Plus_Macro.obj [2]
__SEV                   0x080148a1          Code  Gb  CortexM0Plus_Macro.obj [2]
__SVC                   0x080148b7          Code  Gb  CortexM0Plus_Macro.obj [2]
__SetingFile_End {Abs}  0x0803e7ff          Data  Gb  command line/config [3]
__SetingFile_Size {Abs}
                        0x00005800          Data  Gb  command line/config [3]
__SetingFile_Start {Abs}
                        0x08039000          Data  Gb  command line/config [3]
__SettingFile_X_End__ {Abs}
                        0x0803e7ff          Data  Gb  command line/config [3]
__SettingFile_X_Start__ {Abs}
                        0x08039000          Data  Gb  command line/config [3]
__StartupRegisterTest   0x080148e9          Code  Gb  CortexM0Plus_Macro.obj [2]
__WFE                   0x0801489d          Code  Gb  CortexM0Plus_Macro.obj [2]
__WFI                   0x08014899          Code  Gb  CortexM0Plus_Macro.obj [2]
__aeabi_cdcmpeq         0x0802116d          Code  Gb  DblCmpEq.o [5]
__aeabi_cdcmple         0x08021191          Code  Gb  DblCmpLe.o [5]
__aeabi_cdrcmple        0x08027d45          Code  Gb  DblCmpGe.o [5]
__aeabi_cfcmpeq         0x0802c321          Code  Gb  FltCmpEq.o [5]
__aeabi_cfcmple         0x0801b4c5          Code  Gb  FltCmpLe.o [5]
__aeabi_cfrcmple        0x08025555          Code  Gb  FltCmpGe.o [5]
__aeabi_d2iz            0x08017ed1          Code  Gb  DblToI32.o [5]
__aeabi_d2uiz           0x08017ef5          Code  Gb  DblToI32.o [5]
__aeabi_dadd            0x080211c3          Code  Gb  DblAddSub.o [5]
__aeabi_ddiv            0x08021a03          Code  Gb  DblDiv.o [5]
__aeabi_dmul            0x0802187f          Code  Gb  DblMul.o [5]
__aeabi_dsub            0x08021289          Code  Gb  DblAddSub.o [5]
__aeabi_errno_addr      0x0802557d     0xa  Code  Gb  errno.o [4]
__aeabi_f2d             0x08021ac5          Code  Gb  FltToDbl.o [5]
__aeabi_f2iz            0x0801d819          Code  Gb  FltToS32.o [5]
__aeabi_fadd            0x0801b3a5          Code  Gb  FltAddSub.o [5]
__aeabi_fdiv            0x0801b2fb          Code  Gb  FltDiv.o [5]
__aeabi_fmul            0x0801b24b          Code  Gb  FltMul.o [5]
__aeabi_fsub            0x0801b415          Code  Gb  FltAddSub.o [5]
__aeabi_i2d             0x0801794d          Code  Gb  I32ToDbl.o [5]
__aeabi_i2f             0x0801b215          Code  Gb  I32ToFlt.o [5]
__aeabi_idiv            0x08015995          Code  Gb  I32DivModFast.o [7]
__aeabi_idiv0           0x080208f9          Code  Gb  IntDivZer.o [7]
__aeabi_idivmod         0x08015995          Code  Gb  I32DivModFast.o [7]
__aeabi_ldiv0           0x0802a565          Code  Gb  I64DivZer.o [7]
__aeabi_ldivmod         0x080265c7          Code  Gb  I64DivMod.o [7]
__aeabi_lmul            0x08026595          Code  Gb  I64Mul.o [7]
__aeabi_memclr          0x08007aed          Code  Gb  ABImemset.o [7]
__aeabi_memclr4         0x08007af1          Code  Gb  ABImemset.o [7]
__aeabi_memclr8         0x08007af1          Code  Gb  ABImemset.o [7]
__aeabi_memcpy          0x0800af91          Code  Gb  ABImemcpy.o [7]
__aeabi_memcpy4         0x0800afb9          Code  Wk  ABImemcpy.o [7]
__aeabi_memmove         0x080170f9          Code  Gb  ABImemmove.o [7]
__aeabi_memmove4        0x080170f9          Code  Gb  ABImemmove.o [7]
__aeabi_memmove8        0x080170f9          Code  Gb  ABImemmove.o [7]
__aeabi_memset          0x08007a91          Code  Gb  ABImemset.o [7]
__aeabi_memset4         0x08007ab1          Code  Gb  ABImemset.o [7]
__aeabi_memset8         0x08007ab1          Code  Gb  ABImemset.o [7]
__aeabi_ui2d            0x08017961          Code  Gb  I32ToDbl.o [5]
__aeabi_ui2f            0x0801b22d          Code  Gb  I32ToFlt.o [5]
__aeabi_uidiv           0x0801599b          Code  Gb  I32DivModFast.o [7]
__aeabi_uidivmod        0x0801599b          Code  Gb  I32DivModFast.o [7]
__aeabi_uldivmod        0x08026605          Code  Gb  I64DivMod.o [7]
__aeabi_uread4          0x08013881          Code  Gb  uread4.o [7]
__aeabi_uwrite4         0x08016141          Code  Gb  uwrite4.o [7]
__cmain                 0x0801e5f1          Code  Gb  cmain.o [7]
__exit                  0x0802c581    0x14  Code  Gb  exit.o [8]
__iar_Dint              0x0802a969    0x84  Code  Gb  xdint.o [5]
__iar_Errno             0x20000af0     0x4  Data  Gb  errno.o [4]
__iar_FDint             0x0802a121    0x56  Code  Gb  xfdint.o [5]
__iar_FDscale           0x0802cfe5    0x6c  Code  Gb  xfdscale.o [5]
__iar_FExp              0x0802c36d   0x214  Code  Gb  xfexp.o [5]
__iar_FLogpoly          0x0802c341    0x20  Code  Gb  xflog.o [5]
__iar_Memchr            0x0802a9ed    0x18  Code  Gb  memchr.o [7]
__iar_Memset4_word      0x08007abd          Code  Gb  ABImemset.o [7]
__iar_Memset_word       0x08007a9d          Code  Gb  ABImemset.o [7]
__iar_ceil              0x08029711          Code  Gb  ceil.o [5]
__iar_ceill             0x08029711          Code  Gb  ceil.o [5]
__iar_d2uiz             0x08017ef9          Code  Gb  DblToI32.o [5]
__iar_data_init3        0x08014a15    0x28  Code  Gb  data_init.o [7]
__iar_dlib_perthread_access
                        0x0802a179    0x1c  Code  Gb  xtls.o [6]
__iar_floor             0x080296b9          Code  Gb  floor.o [5]
__iar_floorl            0x080296b9          Code  Gb  floor.o [5]
__iar_packbits_init_single3
                        0x08033509    0x3c  Code  Gb  packbits_init_single.o [7]
__iar_program_start     0x08014a3d          Code  Gb  cstartup_M.o [7]
__iar_ui2d              0x08017965          Code  Gb  I32ToDbl.o [5]
__iar_ui2f              0x0801b231          Code  Gb  I32ToFlt.o [5]
__iar_zero_init3        0x080334cd    0x3c  Code  Gb  zero_init3.o [7]
__low_level_init        0x0802629d     0x4  Code  Gb  low_level_init.o [4]
__vector_table          0x08003000    0xbc  Data  Gb  InterruptVector.obj [2]
_call_main              0x0801e5fd          Code  Gb  cmain.o [7]
_exit                   0x0802a475          Code  Gb  cexit.o [7]
_main                   0x0801e607          Code  Gb  cmain.o [7]
abs                     0x0802504f     0x8  Code  Gb  abs.o [4]
ceil                    0x08029711          Code  Gb  ceil.o [5]
ceill                   0x08029711          Code  Gb  ceil.o [5]
enter_internal_EXIT_STATE
                        0x0801cfa3    0x40  Code  Lc  SensedDrainModel.obj [2]
enter_internal_RETRY_STATE
                        0x0801d0bb    0x3a  Code  Lc  SensedDrainModel.obj [2]
exit                    0x080262a1     0x8  Code  Gb  exit.o [4]
floor                   0x080296b9          Code  Gb  floor.o [5]
floorl                  0x080296b9          Code  Gb  floor.o [5]
internal_Pow            0x0802a195   0x2b8  Code  Lc  powf.o [5]
loader                  0x20004020     0x8  Data  Lc  OWIVoltageRegulatedOutputModel.obj [2]
lround                  0x08021121    0x4c  Code  Gb  lround.o [5]
lroundf                 0x0801b4ed    0x3c  Code  Gb  lroundf.o [5]
main                    0x08014a49   0x178  Code  Gb  SRMain.obj [2]
memchr                  0x080296ad     0x8  Code  Gb  RegulationAccept.obj [2]
memcmp                  0x08017925    0x28  Code  Gb  memcmp.o [7]
pcm_bTrgVarSigned       0x20000b07     0x1  Data  Lc  mc_rec.obj [2]
pcm_dwRecEndBuffPtr     0x20000b48     0x4  Data  Gb  mc_rec.obj [2]
pcm_dwRecWritePtr       0x20000b44     0x4  Data  Gb  mc_rec.obj [2]
pcm_nRecBuffAddr        0x20000b50     0x4  Data  Lc  mc_rec.obj [2]
pcm_nRecTriggerMode     0x20000b04     0x1  Data  Gb  mc_rec.obj [2]
pcm_nRecVarCount        0x20000b05     0x1  Data  Gb  mc_rec.obj [2]
pcm_nRxCheckSum         0x2000414c     0x1  Data  Lc  mc_serial.obj [2]
pcm_nRxTodo             0x20004e19     0x1  Data  Lc  mc_serial.obj [2]
pcm_nScopeVarCount      0x20004734     0x1  Data  Lc  mc_scope.obj [2]
pcm_nTrgVarAddr         0x20000b4c     0x4  Data  Lc  mc_rec.obj [2]
pcm_nTrgVarSize         0x20000b06     0x1  Data  Lc  mc_rec.obj [2]
pcm_nTxTodo             0x20004e18     0x1  Data  Lc  mc_serial.obj [2]
pcm_pCommBuffer         0x20004150    0x40  Data  Lc  mc_serial.obj [2]
pcm_pCompareFunc        0x20000b54     0x4  Data  Lc  mc_rec.obj [2]
pcm_pOwnRecBuffer       0x20000b58  0x1770  Data  Lc  mc_rec.obj [2]
pcm_pRecVarAddr         0x20000b24    0x20  Data  Gb  mc_rec.obj [2]
pcm_pRecVarSize         0x20000b08     0x8  Data  Gb  mc_rec.obj [2]
pcm_pRxBuff             0x20004190     0x4  Data  Lc  mc_serial.obj [2]
pcm_pScopeVarAddr       0x20004740    0x20  Data  Lc  mc_scope.obj [2]
pcm_pScopeVarSize       0x20004738     0x8  Data  Lc  mc_scope.obj [2]
pcm_pTxBuff             0x20004e20     0x4  Data  Lc  mc_serial.obj [2]
pcm_uTrgThreshold       0x20000b14     0x4  Data  Lc  mc_rec.obj [2]
pcm_wFlags              0x20004e1c     0x4  Data  Lc  mc_serial.obj [2]
pcm_wRecBuffStartIx     0x20000b22     0x2  Data  Gb  mc_rec.obj [2]
pcm_wRecFlags           0x20000b10     0x4  Data  Gb  mc_rec.obj [2]
pcm_wRecPostTrigger     0x20000b1a     0x2  Data  Gb  mc_rec.obj [2]
pcm_wRecTimeDiv         0x20000b1c     0x2  Data  Gb  mc_rec.obj [2]
pcm_wRecTimeDivCtr      0x20000b1e     0x2  Data  Gb  mc_rec.obj [2]
pcm_wRecTotalSmps       0x20000b18     0x2  Data  Gb  mc_rec.obj [2]
pcm_wStoprecCountDown   0x20000b20     0x2  Data  Gb  mc_rec.obj [2]
powf                    0x0802a469     0xa  Code  Gb  powf.o [5]
reset_stat_data         0x0801ea7d     0xc  Code  Lc  SRClockMonitor.obj [2]
reset_stat_data         0x0801e89f    0x10  Code  Lc  SRIsrMonitor.obj [2]
round                   0x08027cfd    0x48  Code  Gb  round.o [5]
roundf                  0x08025519    0x3c  Code  Gb  roundf.o [5]
rt_roundd               0x08024a55    0x5e  Code  Gb  OWICalibrationModel.obj [2]
srexceptionforcereset   0x080156d9    0x16  Code  Lc  SRException.obj [2]


[1] = C:\Data\Nucleus_Dev\Vostok_ACU_A\config\tmp
[2] = C:\Data\Nucleus_Dev\Vostok_ACU_A\obj
[3] = command line
[4] = dl6M_tln.a
[5] = m6M_tl.a
[6] = os6m_tl__dp.a
[7] = rt6M_tl.a
[8] = shb_l.a

  195 868 bytes of readonly  code memory
      352 bytes of readwrite code memory
    2 958 bytes of readonly  data memory
   24 009 bytes of readwrite data memory

Errors: none
Warnings: none
